flag.Value.Set STEXT dupok size=176 args=0x30 locals=0x28
	0x0000 00000 (<autogenerated>:1)	TEXT	flag.Value.Set(SB), DUPOK|WRAPPER, $48-48
	0x0000 00000 (<autogenerated>:1)	MOVD	16(g), R3
	0x0006 00006 (<autogenerated>:1)	CMPUBGE	R3, R15, 152
	0x000c 00012 (<autogenerated>:1)	MOVD	R14, -48(R15)
	0x0012 00018 (<autogenerated>:1)	MOVD	$-48(R15), R15
	0x0018 00024 (<autogenerated>:1)	MOVD	32(g), R3
	0x001e 00030 (<autogenerated>:1)	CMP	R3, $0
	0x0022 00034 (<autogenerated>:1)	BEQ	70
	0x0026 00038 (<autogenerated>:1)	MOVD	(R3), R4
	0x002c 00044 (<autogenerated>:1)	ADD	$56, R15, R5
	0x0032 00050 (<autogenerated>:1)	CMP	R4, R5
	0x0036 00054 (<autogenerated>:1)	BNE	70
	0x003a 00058 (<autogenerated>:1)	ADD	$8, R15, R6
	0x0040 00064 (<autogenerated>:1)	MOVD	R6, (R3)
	0x0046 00070 (<autogenerated>:1)	NOP
	0x0046 00070 (<autogenerated>:1)	FUNCDATA	$0, gclocals·62cfa391e43648b94180d51e85a185ac(SB)
	0x0046 00070 (<autogenerated>:1)	FUNCDATA	$1, gclocals·7434ac78ed715a61a5258eadde9d1323(SB)
	0x0046 00070 (<autogenerated>:1)	MOVD	""..this(FP), R0
	0x004c 00076 (<autogenerated>:1)	MOVD	R0, R3
	0x0050 00080 (<autogenerated>:1)	MOVD	24(R3), R0
	0x0056 00086 (<autogenerated>:1)	MOVD	""..this+8(FP), R3
	0x005c 00092 (<autogenerated>:1)	MOVD	""..anon0+16(FP), R1
	0x0062 00098 (<autogenerated>:1)	MOVD	""..anon0+24(FP), R2
	0x0068 00104 (<autogenerated>:1)	STMG	R1, R2, 16(R15)
	0x006e 00110 (<autogenerated>:1)	MOVD	R3, 8(R15)
	0x0074 00116 (<autogenerated>:1)	MOVD	R0, R3
	0x0078 00120 (<autogenerated>:1)	PCDATA	$0, $1
	0x0078 00120 (<autogenerated>:1)	CALL	R3
	0x007a 00122 (<autogenerated>:1)	MOVD	32(R15), R1
	0x0080 00128 (<autogenerated>:1)	MOVD	40(R15), R2
	0x0086 00134 (<autogenerated>:1)	STMG	R1, R2, "".~r2+32(FP)
	0x008c 00140 (<autogenerated>:1)	MOVD	(R15), R14
	0x0092 00146 (<autogenerated>:1)	ADD	$48, R15
	0x0096 00150 (<autogenerated>:1)	JMP	R14
	0x0098 00152 (<autogenerated>:1)	NOP
	0x0098 00152 (<autogenerated>:1)	PCDATA	$0, $-1
	0x0098 00152 (<autogenerated>:1)	MOVD	R14, R5
	0x009c 00156 (<autogenerated>:1)	CALL	runtime.morestack_noctxt(SB)
	0x00a2 00162 (<autogenerated>:1)	JMP	0
	0x0000 e3 30 d0 10 00 04 ec 3f 00 49 a0 65 e3 e0 ff d0  .0.....?.I.e....
	0x0010 ff 24 e3 ff 0f d0 ff 71 e3 30 d0 20 00 04 a7 3f  .$.....q.0. ...?
	0x0020 00 00 a7 84 00 12 e3 40 30 00 00 04 ec 5f 00 38  .......@0...._.8
	0x0030 00 d9 b9 20 00 45 a7 74 00 08 ec 6f 00 08 00 d9  ... .E.t...o....
	0x0040 e3 60 30 00 00 24 e3 00 f0 38 00 04 b9 04 00 30  .`0..$...8.....0
	0x0050 e3 00 30 18 00 04 e3 30 f0 40 00 04 e3 10 f0 48  ..0....0.@.....H
	0x0060 00 04 e3 20 f0 50 00 04 eb 12 f0 10 00 24 e3 30  ... .P.......$.0
	0x0070 f0 08 00 24 b9 04 00 30 0d e3 e3 10 f0 20 00 04  ...$...0..... ..
	0x0080 e3 20 f0 28 00 04 eb 12 f0 58 00 24 e3 e0 f0 00  . .(.....X.$....
	0x0090 00 04 a7 fb 00 30 07 fe b9 04 00 5e c0 e5 00 00  .....0.....^....
	0x00a0 00 00 a7 f4 ff af 00 00 00 00 00 00 00 00 00 00  ................
	rel 158+4 t=8 runtime.morestack_noctxt+6
flag.Value.String STEXT dupok size=160 args=0x20 locals=0x18
	0x0000 00000 (<autogenerated>:1)	TEXT	flag.Value.String(SB), DUPOK|WRAPPER, $32-32
	0x0000 00000 (<autogenerated>:1)	MOVD	16(g), R3
	0x0006 00006 (<autogenerated>:1)	CMPUBGE	R3, R15, 134
	0x000c 00012 (<autogenerated>:1)	MOVD	R14, -32(R15)
	0x0012 00018 (<autogenerated>:1)	MOVD	$-32(R15), R15
	0x0018 00024 (<autogenerated>:1)	MOVD	32(g), R3
	0x001e 00030 (<autogenerated>:1)	CMP	R3, $0
	0x0022 00034 (<autogenerated>:1)	BEQ	70
	0x0026 00038 (<autogenerated>:1)	MOVD	(R3), R4
	0x002c 00044 (<autogenerated>:1)	ADD	$40, R15, R5
	0x0032 00050 (<autogenerated>:1)	CMP	R4, R5
	0x0036 00054 (<autogenerated>:1)	BNE	70
	0x003a 00058 (<autogenerated>:1)	ADD	$8, R15, R6
	0x0040 00064 (<autogenerated>:1)	MOVD	R6, (R3)
	0x0046 00070 (<autogenerated>:1)	NOP
	0x0046 00070 (<autogenerated>:1)	FUNCDATA	$0, gclocals·2478275c65d3972855cd422c41fea07e(SB)
	0x0046 00070 (<autogenerated>:1)	FUNCDATA	$1, gclocals·7434ac78ed715a61a5258eadde9d1323(SB)
	0x0046 00070 (<autogenerated>:1)	MOVD	""..this(FP), R0
	0x004c 00076 (<autogenerated>:1)	MOVD	""..this+8(FP), R1
	0x0052 00082 (<autogenerated>:1)	MOVD	R0, R2
	0x0056 00086 (<autogenerated>:1)	MOVD	32(R2), R0
	0x005c 00092 (<autogenerated>:1)	MOVD	R1, 8(R15)
	0x0062 00098 (<autogenerated>:1)	MOVD	R0, R1
	0x0066 00102 (<autogenerated>:1)	PCDATA	$0, $1
	0x0066 00102 (<autogenerated>:1)	CALL	R1
	0x0068 00104 (<autogenerated>:1)	MOVD	16(R15), R1
	0x006e 00110 (<autogenerated>:1)	MOVD	24(R15), R2
	0x0074 00116 (<autogenerated>:1)	STMG	R1, R2, "".~r1+16(FP)
	0x007a 00122 (<autogenerated>:1)	MOVD	(R15), R14
	0x0080 00128 (<autogenerated>:1)	ADD	$32, R15
	0x0084 00132 (<autogenerated>:1)	JMP	R14
	0x0086 00134 (<autogenerated>:1)	NOP
	0x0086 00134 (<autogenerated>:1)	PCDATA	$0, $-1
	0x0086 00134 (<autogenerated>:1)	MOVD	R14, R5
	0x008a 00138 (<autogenerated>:1)	CALL	runtime.morestack_noctxt(SB)
	0x0090 00144 (<autogenerated>:1)	JMP	0
	0x0000 e3 30 d0 10 00 04 ec 3f 00 40 a0 65 e3 e0 ff e0  .0.....?.@.e....
	0x0010 ff 24 e3 ff 0f e0 ff 71 e3 30 d0 20 00 04 a7 3f  .$.....q.0. ...?
	0x0020 00 00 a7 84 00 12 e3 40 30 00 00 04 ec 5f 00 28  .......@0...._.(
	0x0030 00 d9 b9 20 00 45 a7 74 00 08 ec 6f 00 08 00 d9  ... .E.t...o....
	0x0040 e3 60 30 00 00 24 e3 00 f0 28 00 04 e3 10 f0 30  .`0..$...(.....0
	0x0050 00 04 b9 04 00 20 e3 00 20 20 00 04 e3 10 f0 08  ..... ..  ......
	0x0060 00 24 b9 04 00 10 0d e1 e3 10 f0 10 00 04 e3 20  .$............. 
	0x0070 f0 18 00 04 eb 12 f0 38 00 24 e3 e0 f0 00 00 04  .......8.$......
	0x0080 a7 fb 00 20 07 fe b9 04 00 5e c0 e5 00 00 00 00  ... .....^......
	0x0090 a7 f4 ff b8 00 00 00 00 00 00 00 00 00 00 00 00  ................
	rel 140+4 t=8 runtime.morestack_noctxt+6
"".(*CustomStruct).String STEXT size=96 args=0x18 locals=0x18
	0x0000 00000 (queens.go:27)	TEXT	"".(*CustomStruct).String(SB), $32-24
	0x0000 00000 (queens.go:27)	MOVD	16(g), R3
	0x0006 00006 (queens.go:27)	CMPUBGE	R3, R15, 78
	0x000c 00012 (queens.go:27)	MOVD	R14, -32(R15)
	0x0012 00018 (queens.go:27)	MOVD	$-32(R15), R15
	0x0018 00024 (queens.go:27)	FUNCDATA	$0, gclocals·6f550cc558777c5ec4d35b94cd3d5dde(SB)
	0x0018 00024 (queens.go:27)	FUNCDATA	$1, gclocals·7434ac78ed715a61a5258eadde9d1323(SB)
	0x0018 00024 (queens.go:27)	MOVD	"".cF(FP), R1
	0x001e 00030 (queens.go:28)	MOVD	(R1), R0
	0x0024 00036 (queens.go:28)	MOVD	R0, 8(R15)
	0x002a 00042 (queens.go:28)	PCDATA	$0, $1
	0x002a 00042 (queens.go:28)	CALL	strconv.Itoa(SB)
	0x0030 00048 (queens.go:28)	MOVD	24(R15), R2
	0x0036 00054 (queens.go:28)	MOVD	16(R15), R1
	0x003c 00060 (queens.go:28)	STMG	R1, R2, "".~r0+8(FP)
	0x0042 00066 (queens.go:28)	MOVD	(R15), R14
	0x0048 00072 (queens.go:28)	ADD	$32, R15
	0x004c 00076 (queens.go:28)	JMP	R14
	0x004e 00078 (queens.go:28)	NOP
	0x004e 00078 (queens.go:27)	PCDATA	$0, $-1
	0x004e 00078 (queens.go:27)	MOVD	R14, R5
	0x0052 00082 (queens.go:27)	CALL	runtime.morestack_noctxt(SB)
	0x0058 00088 (queens.go:27)	JMP	0
	0x0000 e3 30 d0 10 00 04 ec 3f 00 24 a0 65 e3 e0 ff e0  .0.....?.$.e....
	0x0010 ff 24 e3 ff 0f e0 ff 71 e3 10 f0 28 00 04 e3 00  .$.....q...(....
	0x0020 10 00 00 04 e3 00 f0 08 00 24 c0 e5 00 00 00 00  .........$......
	0x0030 e3 20 f0 18 00 04 e3 10 f0 10 00 04 eb 12 f0 30  . .............0
	0x0040 00 24 e3 e0 f0 00 00 04 a7 fb 00 20 07 fe b9 04  .$......... ....
	0x0050 00 5e c0 e5 00 00 00 00 a7 f4 ff d4 00 00 00 00  .^..............
	rel 44+4 t=8 strconv.Itoa+6
	rel 84+4 t=8 runtime.morestack_noctxt+6
"".(*CustomStruct).Set STEXT size=112 args=0x28 locals=0x28
	0x0000 00000 (queens.go:31)	TEXT	"".(*CustomStruct).Set(SB), $48-40
	0x0000 00000 (queens.go:31)	MOVD	16(g), R3
	0x0006 00006 (queens.go:31)	CMPUBGE	R3, R15, 90
	0x000c 00012 (queens.go:31)	MOVD	R14, -48(R15)
	0x0012 00018 (queens.go:31)	MOVD	$-48(R15), R15
	0x0018 00024 (queens.go:31)	FUNCDATA	$0, gclocals·a510838810b4c18d099122f75603fe77(SB)
	0x0018 00024 (queens.go:31)	FUNCDATA	$1, gclocals·7434ac78ed715a61a5258eadde9d1323(SB)
	0x0018 00024 (queens.go:31)	MOVD	"".s+8(FP), R1
	0x001e 00030 (queens.go:31)	MOVD	"".s+16(FP), R2
	0x0024 00036 (queens.go:32)	STMG	R1, R2, 8(R15)
	0x002a 00042 (queens.go:32)	PCDATA	$0, $1
	0x002a 00042 (queens.go:32)	CALL	strconv.Atoi(SB)
	0x0030 00048 (queens.go:32)	MOVD	24(R15), R0
	0x0036 00054 (queens.go:32)	MOVD	"".cF(FP), R3
	0x003c 00060 (queens.go:32)	MOVD	R0, (R3)
	0x0042 00066 (queens.go:34)	MOVD	$0, "".~r1+24(FP)
	0x0048 00072 (queens.go:34)	MOVD	$0, "".~r1+32(FP)
	0x004e 00078 (queens.go:34)	MOVD	(R15), R14
	0x0054 00084 (queens.go:34)	ADD	$48, R15
	0x0058 00088 (queens.go:34)	JMP	R14
	0x005a 00090 (queens.go:34)	NOP
	0x005a 00090 (queens.go:31)	PCDATA	$0, $-1
	0x005a 00090 (queens.go:31)	MOVD	R14, R5
	0x005e 00094 (queens.go:31)	CALL	runtime.morestack_noctxt(SB)
	0x0064 00100 (queens.go:31)	JMP	0
	0x0000 e3 30 d0 10 00 04 ec 3f 00 2a a0 65 e3 e0 ff d0  .0.....?.*.e....
	0x0010 ff 24 e3 ff 0f d0 ff 71 e3 10 f0 40 00 04 e3 20  .$.....q...@... 
	0x0020 f0 48 00 04 eb 12 f0 08 00 24 c0 e5 00 00 00 00  .H.......$......
	0x0030 e3 00 f0 18 00 04 e3 30 f0 38 00 04 e3 00 30 00  .......0.8....0.
	0x0040 00 24 e5 48 f0 50 00 00 e5 48 f0 58 00 00 e3 e0  .$.H.P...H.X....
	0x0050 f0 00 00 04 a7 fb 00 30 07 fe b9 04 00 5e c0 e5  .......0.....^..
	0x0060 00 00 00 00 a7 f4 ff ce 00 00 00 00 00 00 00 00  ................
	rel 44+4 t=8 strconv.Atoi+6
	rel 96+4 t=8 runtime.morestack_noctxt+6
"".(*CustomStruct).Get STEXT nosplit size=32 args=0x10 locals=0x0 leaf
	0x0000 00000 (queens.go:37)	TEXT	"".(*CustomStruct).Get(SB), NOSPLIT|LEAF|NOFRAME, $0-16
	0x0000 00000 (queens.go:37)	FUNCDATA	$0, gclocals·6e0648e45736623f8a0df5101c2c91a4(SB)
	0x0000 00000 (queens.go:37)	FUNCDATA	$1, gclocals·2002e13acf59079a1a5782c918894579(SB)
	0x0000 00000 (queens.go:37)	MOVD	"".cF(FP), R1
	0x0006 00006 (queens.go:38)	MOVD	(R1), R0
	0x000c 00012 (queens.go:38)	MOVD	R0, "".~r0+8(FP)
	0x0012 00018 (queens.go:38)	JMP	R14
	0x0000 e3 10 f0 08 00 04 e3 00 10 00 00 04 e3 00 f0 10  ................
	0x0010 00 24 07 fe 00 00 00 00 00 00 00 00 00 00 00 00  .$..............
"".(*CustomStruct).IsSet STEXT nosplit size=32 args=0x10 locals=0x0 leaf
	0x0000 00000 (queens.go:41)	TEXT	"".(*CustomStruct).IsSet(SB), NOSPLIT|LEAF|NOFRAME, $0-16
	0x0000 00000 (queens.go:41)	FUNCDATA	$0, gclocals·6e0648e45736623f8a0df5101c2c91a4(SB)
	0x0000 00000 (queens.go:41)	FUNCDATA	$1, gclocals·2002e13acf59079a1a5782c918894579(SB)
	0x0000 00000 (queens.go:41)	MOVD	"".cF(FP), R1
	0x0006 00006 (queens.go:42)	MOVD	(R1), R0
	0x000c 00012 (queens.go:42)	CMP	R0, $-1
	0x0010 00016 (queens.go:42)	BNE	26
	0x0014 00020 (queens.go:43)	MOVB	$0, "".~r0+8(FP)
	0x0018 00024 (queens.go:43)	JMP	R14
	0x001a 00026 (queens.go:46)	MOVB	$1, "".~r0+8(FP)
	0x001e 00030 (queens.go:46)	JMP	R14
	0x0000 e3 10 f0 08 00 04 e3 00 10 00 00 04 a7 0f ff ff  ................
	0x0010 a7 74 00 05 92 00 f0 10 07 fe 92 01 f0 10 07 fe  .t..............
"".main STEXT size=2288 args=0x0 locals=0x278
	0x0000 00000 (queens.go:49)	TEXT	"".main(SB), $640-0
	0x0000 00000 (queens.go:49)	MOVD	16(g), R3
	0x0006 00006 (queens.go:49)	ADD	$-512, R15, R4
	0x000c 00012 (queens.go:49)	CMPUBGE	R3, R4, 2260
	0x0012 00018 (queens.go:49)	MOVD	R14, -640(R15)
	0x0018 00024 (queens.go:49)	MOVD	$-640(R15), R15
	0x001e 00030 (queens.go:49)	FUNCDATA	$0, gclocals·43dc19645ab9b46d37a3955c9492bc89(SB)
	0x001e 00030 (queens.go:49)	FUNCDATA	$1, gclocals·0adbb1cb7450358c2deca90f82abf6f3(SB)
	0x001e 00030 (queens.go:50)	MOVD	$type.int64(SB), R0
	0x0024 00036 (queens.go:50)	MOVD	R0, 8(R15)
	0x002a 00042 (queens.go:50)	PCDATA	$0, $0
	0x002a 00042 (queens.go:50)	CALL	runtime.newobject(SB)
	0x0030 00048 (queens.go:50)	MOVD	16(R15), R0
	0x0036 00054 (queens.go:50)	MOVD	R0, "".&n-472(SP)
	0x003c 00060 (queens.go:50)	MOVD	R0, R1
	0x0040 00064 (queens.go:50)	MOVD	$8, (R1)
	0x0046 00070 (queens.go:53)	MOVD	$type."".CustomStruct(SB), R2
	0x004c 00076 (queens.go:53)	MOVD	R2, 8(R15)
	0x0052 00082 (queens.go:53)	PCDATA	$0, $1
	0x0052 00082 (queens.go:53)	CALL	runtime.newobject(SB)
	0x0058 00088 (queens.go:53)	MOVD	16(R15), R1
	0x005e 00094 (queens.go:53)	MOVD	R1, "".cF-496(SP)
	0x0064 00100 (queens.go:53)	MOVD	$-1, (R1)
	0x006a 00106 (queens.go:55)	MOVD	$go.itab.*"".CustomStruct,flag.Value(SB), R0
	0x0070 00112 (queens.go:55)	MOVD	R0, 8(R15)
	0x0076 00118 (queens.go:55)	MOVD	$go.string."n"(SB), R2
	0x007c 00124 (queens.go:55)	STMG	R1, R2, 16(R15)
	0x0082 00130 (queens.go:55)	MOVD	$1, 32(R15)
	0x0088 00136 (queens.go:55)	MOVD	$go.string."chessboard size"(SB), R0
	0x008e 00142 (queens.go:55)	MOVD	R0, 40(R15)
	0x0094 00148 (queens.go:55)	MOVD	$15, 48(R15)
	0x009a 00154 (queens.go:55)	PCDATA	$0, $2
	0x009a 00154 (queens.go:55)	CALL	flag.Var(SB)
	0x00a0 00160 (queens.go:56)	MOVD	$go.string."s"(SB), R0
	0x00a6 00166 (queens.go:56)	MOVD	R0, 8(R15)
	0x00ac 00172 (queens.go:56)	MOVD	$1, 16(R15)
	0x00b2 00178 (queens.go:56)	MOVB	$0, 24(R15)
	0x00b6 00182 (queens.go:56)	MOVD	$go.string."single chessboard size"(SB), R0
	0x00bc 00188 (queens.go:56)	MOVD	R0, 32(R15)
	0x00c2 00194 (queens.go:56)	MOVD	$22, 40(R15)
	0x00c8 00200 (queens.go:56)	PCDATA	$0, $2
	0x00c8 00200 (queens.go:56)	CALL	flag.Bool(SB)
	0x00ce 00206 (queens.go:56)	MOVD	48(R15), R0
	0x00d4 00212 (queens.go:56)	MOVD	R0, "".boolPtr-488(SP)
	0x00da 00218 (queens.go:58)	MOVD	$go.string."h"(SB), R1
	0x00e0 00224 (queens.go:58)	MOVD	R1, 8(R15)
	0x00e6 00230 (queens.go:58)	MOVD	$1, 16(R15)
	0x00ec 00236 (queens.go:58)	MOVB	$0, 24(R15)
	0x00f0 00240 (queens.go:58)	MOVD	$go.string."show help dialogue"(SB), R1
	0x00f6 00246 (queens.go:58)	MOVD	R1, 32(R15)
	0x00fc 00252 (queens.go:58)	MOVD	$18, 40(R15)
	0x0102 00258 (queens.go:58)	PCDATA	$0, $3
	0x0102 00258 (queens.go:58)	CALL	flag.Bool(SB)
	0x0108 00264 (queens.go:58)	MOVD	48(R15), R0
	0x010e 00270 (queens.go:58)	MOVD	R0, "".helpPtr-504(SP)
	0x0114 00276 (queens.go:59)	PCDATA	$0, $4
	0x0114 00276 (queens.go:59)	CALL	flag.Parse(SB)
	0x011a 00282 (queens.go:59)	MOVD	"".helpPtr-504(SP), R1
	0x0120 00288 (queens.go:60)	MOVBZ	(R1), R0
	0x0126 00294 (queens.go:60)	CMPW	R0, $0
	0x012a 00298 (queens.go:60)	BNE	1610
	0x012e 00302 (queens.go:60)	MOVD	"".cF-496(SP), R3
	0x0134 00308 (queens.go:74)	MOVD	(R3), R0
	0x013a 00314 (queens.go:74)	CMP	R0, $-1
	0x013e 00318 (queens.go:74)	BNE	1478
	0x0142 00322 (queens.go:78)	MOVD	$go.string."\nn command line argument is not included.\n"(SB), R0
	0x0148 00328 (queens.go:78)	MOVD	R0, 8(R15)
	0x014e 00334 (queens.go:78)	MOVD	$42, 16(R15)
	0x0154 00340 (queens.go:78)	MOVD	$0, 24(R15)
	0x015a 00346 (queens.go:78)	MOVD	$0, 32(R15)
	0x0160 00352 (queens.go:78)	MOVD	$0, 40(R15)
	0x0166 00358 (queens.go:78)	PCDATA	$0, $5
	0x0166 00358 (queens.go:78)	CALL	fmt.Printf(SB)
	0x016c 00364 (queens.go:79)	MOVD	$0, ""..autotmp_31-400(SP)
	0x0172 00370 (queens.go:79)	MOVD	$0, ""..autotmp_31-392(SP)
	0x0178 00376 (queens.go:79)	MOVD	$type.string(SB), R1
	0x017e 00382 (queens.go:79)	MOVD	$"".statictmp_11(SB), R2
	0x0184 00388 (queens.go:79)	STMG	R1, R2, ""..autotmp_31-400(SP)
	0x018a 00394 (queens.go:79)	MOVD	$""..autotmp_31-400(SP), R0
	0x018e 00398 (queens.go:79)	MOVD	R0, 8(R15)
	0x0194 00404 (queens.go:79)	MOVD	$1, 16(R15)
	0x019a 00410 (queens.go:79)	MOVD	$1, 24(R15)
	0x01a0 00416 (queens.go:79)	PCDATA	$0, $6
	0x01a0 00416 (queens.go:79)	CALL	fmt.Println(SB)
	0x01a6 00422 (queens.go:80)	MOVD	$0, ""..autotmp_32-416(SP)
	0x01ac 00428 (queens.go:80)	MOVD	$0, ""..autotmp_32-408(SP)
	0x01b2 00434 (queens.go:80)	MOVD	$type.string(SB), R1
	0x01b8 00440 (queens.go:80)	MOVD	$"".statictmp_12(SB), R2
	0x01be 00446 (queens.go:80)	STMG	R1, R2, ""..autotmp_32-416(SP)
	0x01c4 00452 (queens.go:80)	MOVD	$""..autotmp_32-416(SP), R0
	0x01c8 00456 (queens.go:80)	MOVD	R0, 8(R15)
	0x01ce 00462 (queens.go:80)	MOVD	$1, 16(R15)
	0x01d4 00468 (queens.go:80)	MOVD	$1, 24(R15)
	0x01da 00474 (queens.go:80)	PCDATA	$0, $7
	0x01da 00474 (queens.go:80)	CALL	fmt.Println(SB)
	0x01e0 00480 (queens.go:81)	MOVD	$0, ""..autotmp_33-432(SP)
	0x01e6 00486 (queens.go:81)	MOVD	$0, ""..autotmp_33-424(SP)
	0x01ec 00492 (queens.go:81)	MOVD	$type.*int64(SB), R1
	0x01f2 00498 (queens.go:81)	MOVD	"".&n-472(SP), R2
	0x01f8 00504 (queens.go:81)	STMG	R1, R2, ""..autotmp_33-432(SP)
	0x01fe 00510 (queens.go:81)	MOVD	$""..autotmp_33-432(SP), R0
	0x0202 00514 (queens.go:81)	MOVD	R0, 8(R15)
	0x0208 00520 (queens.go:81)	MOVD	$1, 16(R15)
	0x020e 00526 (queens.go:81)	MOVD	$1, 24(R15)
	0x0214 00532 (queens.go:81)	PCDATA	$0, $8
	0x0214 00532 (queens.go:81)	CALL	fmt.Scan(SB)
	0x021a 00538 (queens.go:81)	MOVD	"".&n-472(SP), R3
	0x0220 00544 (queens.go:85)	MOVD	(R3), R0
	0x0226 00550 (queens.go:85)	CMP	R0, $4
	0x022a 00554 (queens.go:85)	BLT	1408
	0x022e 00558 (queens.go:90)	CMP	R0, $27
	0x0232 00562 (queens.go:90)	BGT	1338
	0x0236 00566 (queens.go:90)	MOVD	"".boolPtr-488(SP), R1
	0x023c 00572 (queens.go:94)	MOVBZ	(R1), R0
	0x0242 00578 (queens.go:94)	CMPW	R0, $0
	0x0246 00582 (queens.go:94)	BNE	982
	0x024a 00586 (queens.go:94)	MOVD	$4, R0
	0x024e 00590 (queens.go:95)	JMP	956
	0x0252 00594 (queens.go:95)	MOVD	R0, "".loopvar-568(SP)
	0x0258 00600 (queens.go:96)	PCDATA	$0, $1
	0x0258 00600 (queens.go:96)	CALL	time.Now(SB)
	0x025e 00606 (queens.go:96)	MOVD	8(R15), R0
	0x0264 00612 (queens.go:96)	MOVD	R0, ""..autotmp_96-552(SP)
	0x026a 00618 (queens.go:96)	MOVD	16(R15), R1
	0x0270 00624 (queens.go:96)	MOVD	R1, ""..autotmp_97-560(SP)
	0x0276 00630 (queens.go:96)	MOVD	24(R15), R2
	0x027c 00636 (queens.go:96)	MOVD	R2, ""..autotmp_98-480(SP)
	0x0282 00642 (queens.go:96)	MOVD	"".loopvar-568(SP), R3
	0x0288 00648 (queens.go:97)	MOVD	R3, 8(R15)
	0x028e 00654 (queens.go:97)	PCDATA	$0, $9
	0x028e 00654 (queens.go:97)	CALL	"".queen(SB)
	0x0294 00660 (queens.go:97)	MOVD	""..autotmp_96-552(SP), R1
	0x029a 00666 (queens.go:97)	MOVD	""..autotmp_97-560(SP), R2
	0x02a0 00672 (queens.go:97)	MOVD	""..autotmp_98-480(SP), R3
	0x02a6 00678 (queens.go:98)	STMG	R1, R3, 8(R15)
	0x02ac 00684 (queens.go:98)	PCDATA	$0, $1
	0x02ac 00684 (queens.go:98)	CALL	time.Since(SB)
	0x02b2 00690 (queens.go:98)	MOVD	32(R15), R0
	0x02b8 00696 (queens.go:101)	MOVD	"".loopvar-568(SP), R1
	0x02be 00702 (queens.go:101)	MOVD	R1, ""..autotmp_38-520(SP)
	0x02c4 00708 (queens.go:101)	MOVD	R0, ""..autotmp_39-528(SP)
	0x02ca 00714 (queens.go:101)	MOVD	$""..autotmp_37-96(SP), R2
	0x02ce 00718 (queens.go:101)	CLEAR	$96, (R2)
	0x02d4 00724 (queens.go:101)	MOVD	$type.string(SB), R1
	0x02da 00730 (queens.go:101)	MOVD	$"".statictmp_15(SB), R2
	0x02e0 00736 (queens.go:101)	STMG	R1, R2, ""..autotmp_37-96(SP)
	0x02e6 00742 (queens.go:101)	MOVD	$type.int64(SB), R1
	0x02ec 00748 (queens.go:101)	MOVD	$""..autotmp_38-520(SP), R2
	0x02f0 00752 (queens.go:101)	STMG	R1, R2, 8(R15)
	0x02f6 00758 (queens.go:101)	PCDATA	$0, $10
	0x02f6 00758 (queens.go:101)	CALL	runtime.convT2E64(SB)
	0x02fc 00764 (queens.go:101)	MOVD	32(R15), R1
	0x0302 00770 (queens.go:101)	MOVD	24(R15), R0
	0x0308 00776 (queens.go:101)	MOVD	R0, ""..autotmp_37-80(SP)
	0x030e 00782 (queens.go:101)	MOVD	$type.string(SB), R2
	0x0314 00788 (queens.go:101)	MOVD	$"".statictmp_16(SB), R3
	0x031a 00794 (queens.go:101)	STMG	R1, R3, ""..autotmp_37-72(SP)
	0x0320 00800 (queens.go:101)	MOVD	$type.int64(SB), R1
	0x0326 00806 (queens.go:101)	MOVD	$"".count(SB), R2
	0x032c 00812 (queens.go:101)	STMG	R1, R2, 8(R15)
	0x0332 00818 (queens.go:101)	PCDATA	$0, $10
	0x0332 00818 (queens.go:101)	CALL	runtime.convT2E64(SB)
	0x0338 00824 (queens.go:101)	MOVD	32(R15), R1
	0x033e 00830 (queens.go:101)	MOVD	24(R15), R0
	0x0344 00836 (queens.go:101)	MOVD	R0, ""..autotmp_37-48(SP)
	0x034a 00842 (queens.go:101)	MOVD	$type.string(SB), R2
	0x0350 00848 (queens.go:101)	MOVD	$"".statictmp_17(SB), R3
	0x0356 00854 (queens.go:101)	STMG	R1, R3, ""..autotmp_37-40(SP)
	0x035c 00860 (queens.go:101)	MOVD	$type.time.Duration(SB), R1
	0x0362 00866 (queens.go:101)	MOVD	$""..autotmp_39-528(SP), R2
	0x0366 00870 (queens.go:101)	STMG	R1, R2, 8(R15)
	0x036c 00876 (queens.go:101)	PCDATA	$0, $10
	0x036c 00876 (queens.go:101)	CALL	runtime.convT2E64(SB)
	0x0372 00882 (queens.go:101)	MOVD	32(R15), R2
	0x0378 00888 (queens.go:101)	MOVD	24(R15), R1
	0x037e 00894 (queens.go:101)	STMG	R1, R2, ""..autotmp_37-16(SP)
	0x0384 00900 (queens.go:101)	MOVD	$""..autotmp_37-96(SP), R0
	0x0388 00904 (queens.go:101)	MOVD	R0, 8(R15)
	0x038e 00910 (queens.go:101)	MOVD	$6, 16(R15)
	0x0394 00916 (queens.go:101)	MOVD	$6, 24(R15)
	0x039a 00922 (queens.go:101)	PCDATA	$0, $10
	0x039a 00922 (queens.go:101)	CALL	fmt.Println(SB)
	0x03a0 00928 (queens.go:102)	MOVD	$"".count(SB), R1
	0x03a6 00934 (queens.go:102)	MOVD	$0, (R1)
	0x03ac 00940 (queens.go:102)	MOVD	"".loopvar-568(SP), R0
	0x03b2 00946 (queens.go:95)	ADD	$1, R0, R0
	0x03b6 00950 (queens.go:95)	MOVD	"".&n-472(SP), R3
	0x03bc 00956 (queens.go:95)	MOVD	(R3), R1
	0x03c2 00962 (queens.go:95)	CMP	R0, R1
	0x03c6 00966 (queens.go:95)	BLE	594
	0x03ca 00970 (queens.go:114)	MOVD	(R15), R14
	0x03d0 00976 (queens.go:114)	ADD	$640, R15
	0x03d4 00980 (queens.go:114)	JMP	R14
	0x03d6 00982 (queens.go:105)	PCDATA	$0, $1
	0x03d6 00982 (queens.go:105)	CALL	time.Now(SB)
	0x03dc 00988 (queens.go:105)	MOVD	24(R15), R0
	0x03e2 00994 (queens.go:105)	MOVD	R0, ""..autotmp_98-480(SP)
	0x03e8 01000 (queens.go:105)	MOVD	16(R15), R1
	0x03ee 01006 (queens.go:105)	MOVD	R1, ""..autotmp_97-560(SP)
	0x03f4 01012 (queens.go:105)	MOVD	8(R15), R2
	0x03fa 01018 (queens.go:105)	MOVD	R2, ""..autotmp_96-552(SP)
	0x0400 01024 (queens.go:106)	MOVD	$"".count(SB), R3
	0x0406 01030 (queens.go:106)	MOVD	$0, (R3)
	0x040c 01036 (queens.go:106)	MOVD	"".&n-472(SP), R4
	0x0412 01042 (queens.go:107)	MOVD	(R4), R5
	0x0418 01048 (queens.go:107)	MOVD	R5, 8(R15)
	0x041e 01054 (queens.go:107)	PCDATA	$0, $9
	0x041e 01054 (queens.go:107)	CALL	"".queen(SB)
	0x0424 01060 (queens.go:107)	MOVD	""..autotmp_96-552(SP), R1
	0x042a 01066 (queens.go:107)	MOVD	""..autotmp_97-560(SP), R2
	0x0430 01072 (queens.go:107)	MOVD	""..autotmp_98-480(SP), R3
	0x0436 01078 (queens.go:108)	STMG	R1, R3, 8(R15)
	0x043c 01084 (queens.go:108)	PCDATA	$0, $1
	0x043c 01084 (queens.go:108)	CALL	time.Since(SB)
	0x0442 01090 (queens.go:108)	MOVD	32(R15), R0
	0x0448 01096 (queens.go:108)	MOVD	"".&n-472(SP), R1
	0x044e 01102 (queens.go:111)	MOVD	(R1), R1
	0x0454 01108 (queens.go:111)	MOVD	R1, ""..autotmp_42-536(SP)
	0x045a 01114 (queens.go:111)	MOVD	R0, ""..autotmp_43-544(SP)
	0x0460 01120 (queens.go:111)	MOVD	$""..autotmp_41-192(SP), R1
	0x0464 01124 (queens.go:111)	CLEAR	$96, (R1)
	0x046a 01130 (queens.go:111)	MOVD	$type.string(SB), R1
	0x0470 01136 (queens.go:111)	MOVD	$"".statictmp_18(SB), R2
	0x0476 01142 (queens.go:111)	STMG	R1, R2, ""..autotmp_41-192(SP)
	0x047c 01148 (queens.go:111)	MOVD	$type.int64(SB), R1
	0x0482 01154 (queens.go:111)	MOVD	$""..autotmp_42-536(SP), R2
	0x0486 01158 (queens.go:111)	STMG	R1, R2, 8(R15)
	0x048c 01164 (queens.go:111)	PCDATA	$0, $11
	0x048c 01164 (queens.go:111)	CALL	runtime.convT2E64(SB)
	0x0492 01170 (queens.go:111)	MOVD	32(R15), R1
	0x0498 01176 (queens.go:111)	MOVD	24(R15), R0
	0x049e 01182 (queens.go:111)	MOVD	R0, ""..autotmp_41-176(SP)
	0x04a4 01188 (queens.go:111)	MOVD	$type.string(SB), R2
	0x04aa 01194 (queens.go:111)	MOVD	$"".statictmp_19(SB), R3
	0x04b0 01200 (queens.go:111)	STMG	R1, R3, ""..autotmp_41-168(SP)
	0x04b6 01206 (queens.go:111)	MOVD	$type.int64(SB), R1
	0x04bc 01212 (queens.go:111)	MOVD	$"".count(SB), R2
	0x04c2 01218 (queens.go:111)	STMG	R1, R2, 8(R15)
	0x04c8 01224 (queens.go:111)	PCDATA	$0, $11
	0x04c8 01224 (queens.go:111)	CALL	runtime.convT2E64(SB)
	0x04ce 01230 (queens.go:111)	MOVD	24(R15), R0
	0x04d4 01236 (queens.go:111)	MOVD	32(R15), R1
	0x04da 01242 (queens.go:111)	MOVD	R0, ""..autotmp_41-144(SP)
	0x04e0 01248 (queens.go:111)	MOVD	$type.string(SB), R2
	0x04e6 01254 (queens.go:111)	MOVD	$"".statictmp_20(SB), R3
	0x04ec 01260 (queens.go:111)	STMG	R1, R3, ""..autotmp_41-136(SP)
	0x04f2 01266 (queens.go:111)	MOVD	$type.time.Duration(SB), R1
	0x04f8 01272 (queens.go:111)	MOVD	$""..autotmp_43-544(SP), R2
	0x04fc 01276 (queens.go:111)	STMG	R1, R2, 8(R15)
	0x0502 01282 (queens.go:111)	PCDATA	$0, $11
	0x0502 01282 (queens.go:111)	CALL	runtime.convT2E64(SB)
	0x0508 01288 (queens.go:111)	MOVD	24(R15), R1
	0x050e 01294 (queens.go:111)	MOVD	32(R15), R2
	0x0514 01300 (queens.go:111)	STMG	R1, R2, ""..autotmp_41-112(SP)
	0x051a 01306 (queens.go:111)	MOVD	$""..autotmp_41-192(SP), R0
	0x051e 01310 (queens.go:111)	MOVD	R0, 8(R15)
	0x0524 01316 (queens.go:111)	MOVD	$6, 16(R15)
	0x052a 01322 (queens.go:111)	MOVD	$6, 24(R15)
	0x0530 01328 (queens.go:111)	PCDATA	$0, $11
	0x0530 01328 (queens.go:111)	CALL	fmt.Println(SB)
	0x0536 01334 (queens.go:111)	JMP	970
	0x053a 01338 (queens.go:91)	MOVD	$0, ""..autotmp_36-464(SP)
	0x0540 01344 (queens.go:91)	MOVD	$0, ""..autotmp_36-456(SP)
	0x0546 01350 (queens.go:91)	MOVD	$type.string(SB), R1
	0x054c 01356 (queens.go:91)	MOVD	$"".statictmp_14(SB), R2
	0x0552 01362 (queens.go:91)	STMG	R1, R2, ""..autotmp_36-464(SP)
	0x0558 01368 (queens.go:91)	MOVD	$""..autotmp_36-464(SP), R0
	0x055c 01372 (queens.go:91)	MOVD	R0, 8(R15)
	0x0562 01378 (queens.go:91)	MOVD	$1, 16(R15)
	0x0568 01384 (queens.go:91)	MOVD	$1, 24(R15)
	0x056e 01390 (queens.go:91)	PCDATA	$0, $12
	0x056e 01390 (queens.go:91)	CALL	fmt.Println(SB)
	0x0574 01396 (queens.go:92)	MOVD	(R15), R14
	0x057a 01402 (queens.go:92)	ADD	$640, R15
	0x057e 01406 (queens.go:92)	JMP	R14
	0x0580 01408 (queens.go:86)	MOVD	$0, ""..autotmp_35-448(SP)
	0x0586 01414 (queens.go:86)	MOVD	$0, ""..autotmp_35-440(SP)
	0x058c 01420 (queens.go:86)	MOVD	$type.string(SB), R1
	0x0592 01426 (queens.go:86)	MOVD	$"".statictmp_13(SB), R2
	0x0598 01432 (queens.go:86)	STMG	R1, R2, ""..autotmp_35-448(SP)
	0x059e 01438 (queens.go:86)	MOVD	$""..autotmp_35-448(SP), R0
	0x05a2 01442 (queens.go:86)	MOVD	R0, 8(R15)
	0x05a8 01448 (queens.go:86)	MOVD	$1, 16(R15)
	0x05ae 01454 (queens.go:86)	MOVD	$1, 24(R15)
	0x05b4 01460 (queens.go:86)	PCDATA	$0, $13
	0x05b4 01460 (queens.go:86)	CALL	fmt.Println(SB)
	0x05ba 01466 (queens.go:87)	MOVD	(R15), R14
	0x05c0 01472 (queens.go:87)	ADD	$640, R15
	0x05c4 01476 (queens.go:87)	JMP	R14
	0x05c6 01478 (queens.go:75)	MOVD	R0, ""..autotmp_30-512(SP)
	0x05cc 01484 (queens.go:75)	MOVD	$0, ""..autotmp_29-384(SP)
	0x05d2 01490 (queens.go:75)	MOVD	$0, ""..autotmp_29-376(SP)
	0x05d8 01496 (queens.go:75)	MOVD	$type.int(SB), R1
	0x05de 01502 (queens.go:75)	MOVD	$""..autotmp_30-512(SP), R2
	0x05e2 01506 (queens.go:75)	STMG	R1, R2, 8(R15)
	0x05e8 01512 (queens.go:75)	PCDATA	$0, $14
	0x05e8 01512 (queens.go:75)	CALL	runtime.convT2E64(SB)
	0x05ee 01518 (queens.go:75)	MOVD	24(R15), R1
	0x05f4 01524 (queens.go:75)	MOVD	32(R15), R2
	0x05fa 01530 (queens.go:75)	STMG	R1, R2, ""..autotmp_29-384(SP)
	0x0600 01536 (queens.go:75)	MOVD	$go.string."\nn= %d\n\n"(SB), R0
	0x0606 01542 (queens.go:75)	MOVD	R0, 8(R15)
	0x060c 01548 (queens.go:75)	MOVD	$8, 16(R15)
	0x0612 01554 (queens.go:75)	MOVD	$""..autotmp_29-384(SP), R0
	0x0616 01558 (queens.go:75)	MOVD	R0, 24(R15)
	0x061c 01564 (queens.go:75)	MOVD	$1, 32(R15)
	0x0622 01570 (queens.go:75)	MOVD	$1, 40(R15)
	0x0628 01576 (queens.go:75)	PCDATA	$0, $14
	0x0628 01576 (queens.go:75)	CALL	fmt.Printf(SB)
	0x062e 01582 (queens.go:74)	MOVD	"".cF-496(SP), R3
	0x0634 01588 (queens.go:76)	MOVD	(R3), R0
	0x063a 01594 (queens.go:76)	MOVD	"".&n-472(SP), R3
	0x0640 01600 (queens.go:76)	MOVD	R0, (R3)
	0x0646 01606 (queens.go:76)	JMP	538
	0x064a 01610 (queens.go:61)	MOVD	$0, ""..autotmp_18-208(SP)
	0x0650 01616 (queens.go:61)	MOVD	$0, ""..autotmp_18-200(SP)
	0x0656 01622 (queens.go:61)	MOVD	$type.string(SB), R1
	0x065c 01628 (queens.go:61)	MOVD	$"".statictmp_0(SB), R2
	0x0662 01634 (queens.go:61)	STMG	R1, R2, ""..autotmp_18-208(SP)
	0x0668 01640 (queens.go:61)	MOVD	$""..autotmp_18-208(SP), R0
	0x066c 01644 (queens.go:61)	MOVD	R0, 8(R15)
	0x0672 01650 (queens.go:61)	MOVD	$1, 16(R15)
	0x0678 01656 (queens.go:61)	MOVD	$1, 24(R15)
	0x067e 01662 (queens.go:61)	PCDATA	$0, $15
	0x067e 01662 (queens.go:61)	CALL	fmt.Println(SB)
	0x0684 01668 (queens.go:62)	MOVD	$0, ""..autotmp_19-224(SP)
	0x068a 01674 (queens.go:62)	MOVD	$0, ""..autotmp_19-216(SP)
	0x0690 01680 (queens.go:62)	MOVD	$type.string(SB), R1
	0x0696 01686 (queens.go:62)	MOVD	$"".statictmp_1(SB), R2
	0x069c 01692 (queens.go:62)	STMG	R1, R2, ""..autotmp_19-224(SP)
	0x06a2 01698 (queens.go:62)	MOVD	$""..autotmp_19-224(SP), R0
	0x06a6 01702 (queens.go:62)	MOVD	R0, 8(R15)
	0x06ac 01708 (queens.go:62)	MOVD	$1, 16(R15)
	0x06b2 01714 (queens.go:62)	MOVD	$1, 24(R15)
	0x06b8 01720 (queens.go:62)	PCDATA	$0, $16
	0x06b8 01720 (queens.go:62)	CALL	fmt.Println(SB)
	0x06be 01726 (queens.go:63)	MOVD	$0, ""..autotmp_20-240(SP)
	0x06c4 01732 (queens.go:63)	MOVD	$0, ""..autotmp_20-232(SP)
	0x06ca 01738 (queens.go:63)	MOVD	$type.string(SB), R1
	0x06d0 01744 (queens.go:63)	MOVD	$"".statictmp_2(SB), R2
	0x06d6 01750 (queens.go:63)	STMG	R1, R2, ""..autotmp_20-240(SP)
	0x06dc 01756 (queens.go:63)	MOVD	$""..autotmp_20-240(SP), R0
	0x06e0 01760 (queens.go:63)	MOVD	R0, 8(R15)
	0x06e6 01766 (queens.go:63)	MOVD	$1, 16(R15)
	0x06ec 01772 (queens.go:63)	MOVD	$1, 24(R15)
	0x06f2 01778 (queens.go:63)	PCDATA	$0, $17
	0x06f2 01778 (queens.go:63)	CALL	fmt.Println(SB)
	0x06f8 01784 (queens.go:64)	MOVD	$0, ""..autotmp_21-256(SP)
	0x06fe 01790 (queens.go:64)	MOVD	$0, ""..autotmp_21-248(SP)
	0x0704 01796 (queens.go:64)	MOVD	$type.string(SB), R1
	0x070a 01802 (queens.go:64)	MOVD	$"".statictmp_3(SB), R2
	0x0710 01808 (queens.go:64)	STMG	R1, R2, ""..autotmp_21-256(SP)
	0x0716 01814 (queens.go:64)	MOVD	$""..autotmp_21-256(SP), R0
	0x071a 01818 (queens.go:64)	MOVD	R0, 8(R15)
	0x0720 01824 (queens.go:64)	MOVD	$1, 16(R15)
	0x0726 01830 (queens.go:64)	MOVD	$1, 24(R15)
	0x072c 01836 (queens.go:64)	PCDATA	$0, $18
	0x072c 01836 (queens.go:64)	CALL	fmt.Println(SB)
	0x0732 01842 (queens.go:65)	MOVD	$0, ""..autotmp_22-272(SP)
	0x0738 01848 (queens.go:65)	MOVD	$0, ""..autotmp_22-264(SP)
	0x073e 01854 (queens.go:65)	MOVD	$type.string(SB), R1
	0x0744 01860 (queens.go:65)	MOVD	$"".statictmp_4(SB), R2
	0x074a 01866 (queens.go:65)	STMG	R1, R2, ""..autotmp_22-272(SP)
	0x0750 01872 (queens.go:65)	MOVD	$""..autotmp_22-272(SP), R0
	0x0754 01876 (queens.go:65)	MOVD	R0, 8(R15)
	0x075a 01882 (queens.go:65)	MOVD	$1, 16(R15)
	0x0760 01888 (queens.go:65)	MOVD	$1, 24(R15)
	0x0766 01894 (queens.go:65)	PCDATA	$0, $19
	0x0766 01894 (queens.go:65)	CALL	fmt.Println(SB)
	0x076c 01900 (queens.go:66)	MOVD	$0, ""..autotmp_23-288(SP)
	0x0772 01906 (queens.go:66)	MOVD	$0, ""..autotmp_23-280(SP)
	0x0778 01912 (queens.go:66)	MOVD	$type.string(SB), R1
	0x077e 01918 (queens.go:66)	MOVD	$"".statictmp_5(SB), R2
	0x0784 01924 (queens.go:66)	STMG	R1, R2, ""..autotmp_23-288(SP)
	0x078a 01930 (queens.go:66)	MOVD	$""..autotmp_23-288(SP), R0
	0x078e 01934 (queens.go:66)	MOVD	R0, 8(R15)
	0x0794 01940 (queens.go:66)	MOVD	$1, 16(R15)
	0x079a 01946 (queens.go:66)	MOVD	$1, 24(R15)
	0x07a0 01952 (queens.go:66)	PCDATA	$0, $20
	0x07a0 01952 (queens.go:66)	CALL	fmt.Println(SB)
	0x07a6 01958 (queens.go:67)	MOVD	$0, ""..autotmp_24-304(SP)
	0x07ac 01964 (queens.go:67)	MOVD	$0, ""..autotmp_24-296(SP)
	0x07b2 01970 (queens.go:67)	MOVD	$type.string(SB), R1
	0x07b8 01976 (queens.go:67)	MOVD	$"".statictmp_6(SB), R2
	0x07be 01982 (queens.go:67)	STMG	R1, R2, ""..autotmp_24-304(SP)
	0x07c4 01988 (queens.go:67)	MOVD	$""..autotmp_24-304(SP), R0
	0x07c8 01992 (queens.go:67)	MOVD	R0, 8(R15)
	0x07ce 01998 (queens.go:67)	MOVD	$1, 16(R15)
	0x07d4 02004 (queens.go:67)	MOVD	$1, 24(R15)
	0x07da 02010 (queens.go:67)	PCDATA	$0, $21
	0x07da 02010 (queens.go:67)	CALL	fmt.Println(SB)
	0x07e0 02016 (queens.go:68)	MOVD	$0, ""..autotmp_25-320(SP)
	0x07e6 02022 (queens.go:68)	MOVD	$0, ""..autotmp_25-312(SP)
	0x07ec 02028 (queens.go:68)	MOVD	$type.string(SB), R1
	0x07f2 02034 (queens.go:68)	MOVD	$"".statictmp_7(SB), R2
	0x07f8 02040 (queens.go:68)	STMG	R1, R2, ""..autotmp_25-320(SP)
	0x07fe 02046 (queens.go:68)	MOVD	$""..autotmp_25-320(SP), R0
	0x0802 02050 (queens.go:68)	MOVD	R0, 8(R15)
	0x0808 02056 (queens.go:68)	MOVD	$1, 16(R15)
	0x080e 02062 (queens.go:68)	MOVD	$1, 24(R15)
	0x0814 02068 (queens.go:68)	PCDATA	$0, $22
	0x0814 02068 (queens.go:68)	CALL	fmt.Println(SB)
	0x081a 02074 (queens.go:69)	MOVD	$0, ""..autotmp_26-336(SP)
	0x0820 02080 (queens.go:69)	MOVD	$0, ""..autotmp_26-328(SP)
	0x0826 02086 (queens.go:69)	MOVD	$type.string(SB), R1
	0x082c 02092 (queens.go:69)	MOVD	$"".statictmp_8(SB), R2
	0x0832 02098 (queens.go:69)	STMG	R1, R2, ""..autotmp_26-336(SP)
	0x0838 02104 (queens.go:69)	MOVD	$""..autotmp_26-336(SP), R0
	0x083c 02108 (queens.go:69)	MOVD	R0, 8(R15)
	0x0842 02114 (queens.go:69)	MOVD	$1, 16(R15)
	0x0848 02120 (queens.go:69)	MOVD	$1, 24(R15)
	0x084e 02126 (queens.go:69)	PCDATA	$0, $23
	0x084e 02126 (queens.go:69)	CALL	fmt.Println(SB)
	0x0854 02132 (queens.go:70)	MOVD	$0, ""..autotmp_27-352(SP)
	0x085a 02138 (queens.go:70)	MOVD	$0, ""..autotmp_27-344(SP)
	0x0860 02144 (queens.go:70)	MOVD	$type.string(SB), R1
	0x0866 02150 (queens.go:70)	MOVD	$"".statictmp_9(SB), R2
	0x086c 02156 (queens.go:70)	STMG	R1, R2, ""..autotmp_27-352(SP)
	0x0872 02162 (queens.go:70)	MOVD	$""..autotmp_27-352(SP), R0
	0x0876 02166 (queens.go:70)	MOVD	R0, 8(R15)
	0x087c 02172 (queens.go:70)	MOVD	$1, 16(R15)
	0x0882 02178 (queens.go:70)	MOVD	$1, 24(R15)
	0x0888 02184 (queens.go:70)	PCDATA	$0, $24
	0x0888 02184 (queens.go:70)	CALL	fmt.Println(SB)
	0x088e 02190 (queens.go:71)	MOVD	$0, ""..autotmp_28-368(SP)
	0x0894 02196 (queens.go:71)	MOVD	$0, ""..autotmp_28-360(SP)
	0x089a 02202 (queens.go:71)	MOVD	$type.string(SB), R1
	0x08a0 02208 (queens.go:71)	MOVD	$"".statictmp_10(SB), R2
	0x08a6 02214 (queens.go:71)	STMG	R1, R2, ""..autotmp_28-368(SP)
	0x08ac 02220 (queens.go:71)	MOVD	$""..autotmp_28-368(SP), R0
	0x08b0 02224 (queens.go:71)	MOVD	R0, 8(R15)
	0x08b6 02230 (queens.go:71)	MOVD	$1, 16(R15)
	0x08bc 02236 (queens.go:71)	MOVD	$1, 24(R15)
	0x08c2 02242 (queens.go:71)	PCDATA	$0, $25
	0x08c2 02242 (queens.go:71)	CALL	fmt.Println(SB)
	0x08c8 02248 (queens.go:72)	MOVD	(R15), R14
	0x08ce 02254 (queens.go:72)	ADD	$640, R15
	0x08d2 02258 (queens.go:72)	JMP	R14
	0x08d4 02260 (queens.go:72)	NOP
	0x08d4 02260 (queens.go:49)	PCDATA	$0, $-1
	0x08d4 02260 (queens.go:49)	MOVD	R14, R5
	0x08d8 02264 (queens.go:49)	CALL	runtime.morestack_noctxt(SB)
	0x08de 02270 (queens.go:49)	JMP	0
	0x0000 e3 30 d0 10 00 04 ec 4f fe 00 00 d9 ec 34 04 64  .0.....O.....4.d
	0x0010 a0 65 e3 e0 fd 80 ff 24 e3 ff 0d 80 ff 71 c0 00  .e.....$.....q..
	0x0020 00 00 00 00 e3 00 f0 08 00 24 c0 e5 00 00 00 00  .........$......
	0x0030 e3 00 f0 10 00 04 e3 00 f0 a8 00 24 b9 04 00 10  ...........$....
	0x0040 e5 48 10 00 00 08 c0 20 00 00 00 00 e3 20 f0 08  .H..... ..... ..
	0x0050 00 24 c0 e5 00 00 00 00 e3 10 f0 10 00 04 e3 10  .$..............
	0x0060 f0 90 00 24 e5 48 10 00 ff ff c0 00 00 00 00 00  ...$.H..........
	0x0070 e3 00 f0 08 00 24 c0 20 00 00 00 00 eb 12 f0 10  .....$. ........
	0x0080 00 24 e5 48 f0 20 00 01 c0 00 00 00 00 00 e3 00  .$.H. ..........
	0x0090 f0 28 00 24 e5 48 f0 30 00 0f c0 e5 00 00 00 00  .(.$.H.0........
	0x00a0 c0 00 00 00 00 00 e3 00 f0 08 00 24 e5 48 f0 10  ...........$.H..
	0x00b0 00 01 92 00 f0 18 c0 00 00 00 00 00 e3 00 f0 20  ............... 
	0x00c0 00 24 e5 48 f0 28 00 16 c0 e5 00 00 00 00 e3 00  .$.H.(..........
	0x00d0 f0 30 00 04 e3 00 f0 98 00 24 c0 10 00 00 00 00  .0.......$......
	0x00e0 e3 10 f0 08 00 24 e5 48 f0 10 00 01 92 00 f0 18  .....$.H........
	0x00f0 c0 10 00 00 00 00 e3 10 f0 20 00 24 e5 48 f0 28  ......... .$.H.(
	0x0100 00 12 c0 e5 00 00 00 00 e3 00 f0 30 00 04 e3 00  ...........0....
	0x0110 f0 88 00 24 c0 e5 00 00 00 00 e3 10 f0 88 00 04  ...$............
	0x0120 e3 00 10 00 00 90 a7 0e 00 00 a7 74 02 90 e3 30  ...........t...0
	0x0130 f0 90 00 04 e3 00 30 00 00 04 a7 0f ff ff a7 74  ......0........t
	0x0140 02 44 c0 00 00 00 00 00 e3 00 f0 08 00 24 e5 48  .D...........$.H
	0x0150 f0 10 00 2a e5 48 f0 18 00 00 e5 48 f0 20 00 00  ...*.H.....H. ..
	0x0160 e5 48 f0 28 00 00 c0 e5 00 00 00 00 e5 48 f0 f0  .H.(.........H..
	0x0170 00 00 e5 48 f0 f8 00 00 c0 10 00 00 00 00 c0 20  ...H........... 
	0x0180 00 00 00 00 eb 12 f0 f0 00 24 41 0f 00 f0 e3 00  .........$A.....
	0x0190 f0 08 00 24 e5 48 f0 10 00 01 e5 48 f0 18 00 01  ...$.H.....H....
	0x01a0 c0 e5 00 00 00 00 e5 48 f0 e0 00 00 e5 48 f0 e8  .......H.....H..
	0x01b0 00 00 c0 10 00 00 00 00 c0 20 00 00 00 00 eb 12  ......... ......
	0x01c0 f0 e0 00 24 41 0f 00 e0 e3 00 f0 08 00 24 e5 48  ...$A........$.H
	0x01d0 f0 10 00 01 e5 48 f0 18 00 01 c0 e5 00 00 00 00  .....H..........
	0x01e0 e5 48 f0 d0 00 00 e5 48 f0 d8 00 00 c0 10 00 00  .H.....H........
	0x01f0 00 00 e3 20 f0 a8 00 04 eb 12 f0 d0 00 24 41 0f  ... .........$A.
	0x0200 00 d0 e3 00 f0 08 00 24 e5 48 f0 10 00 01 e5 48  .......$.H.....H
	0x0210 f0 18 00 01 c0 e5 00 00 00 00 e3 30 f0 a8 00 04  ...........0....
	0x0220 e3 00 30 00 00 04 a7 0f 00 04 a7 44 01 ab a7 0f  ..0........D....
	0x0230 00 1b a7 24 01 84 e3 10 f0 98 00 04 e3 00 10 00  ...$............
	0x0240 00 90 a7 0e 00 00 a7 74 00 c8 a7 09 00 04 a7 f4  .......t........
	0x0250 00 b7 e3 00 f0 48 00 24 c0 e5 00 00 00 00 e3 00  .....H.$........
	0x0260 f0 08 00 04 e3 00 f0 58 00 24 e3 10 f0 10 00 04  .......X.$......
	0x0270 e3 10 f0 50 00 24 e3 20 f0 18 00 04 e3 20 f0 a0  ...P.$. ..... ..
	0x0280 00 24 e3 30 f0 48 00 04 e3 30 f0 08 00 24 c0 e5  .$.0.H...0...$..
	0x0290 00 00 00 00 e3 10 f0 58 00 04 e3 20 f0 50 00 04  .......X... .P..
	0x02a0 e3 30 f0 a0 00 04 eb 13 f0 08 00 24 c0 e5 00 00  .0.........$....
	0x02b0 00 00 e3 00 f0 20 00 04 e3 10 f0 48 00 04 e3 10  ..... .....H....
	0x02c0 f0 78 00 24 e3 00 f0 70 00 24 41 2f 02 20 d7 5f  .x.$...p.$A/. ._
	0x02d0 20 00 20 00 c0 10 00 00 00 00 c0 20 00 00 00 00   . ........ ....
	0x02e0 eb 12 f2 20 00 24 c0 10 00 00 00 00 41 2f 00 78  ... .$......A/.x
	0x02f0 eb 12 f0 08 00 24 c0 e5 00 00 00 00 e3 10 f0 20  .....$......... 
	0x0300 00 04 e3 00 f0 18 00 04 e3 00 f2 30 00 24 c0 20  ...........0.$. 
	0x0310 00 00 00 00 c0 30 00 00 00 00 eb 13 f2 38 00 24  .....0.......8.$
	0x0320 c0 10 00 00 00 00 c0 20 00 00 00 00 eb 12 f0 08  ....... ........
	0x0330 00 24 c0 e5 00 00 00 00 e3 10 f0 20 00 04 e3 00  .$......... ....
	0x0340 f0 18 00 04 e3 00 f2 50 00 24 c0 20 00 00 00 00  .......P.$. ....
	0x0350 c0 30 00 00 00 00 eb 13 f2 58 00 24 c0 10 00 00  .0.......X.$....
	0x0360 00 00 41 2f 00 70 eb 12 f0 08 00 24 c0 e5 00 00  ..A/.p.....$....
	0x0370 00 00 e3 20 f0 20 00 04 e3 10 f0 18 00 04 eb 12  ... . ..........
	0x0380 f2 70 00 24 41 0f 02 20 e3 00 f0 08 00 24 e5 48  .p.$A.. .....$.H
	0x0390 f0 10 00 06 e5 48 f0 18 00 06 c0 e5 00 00 00 00  .....H..........
	0x03a0 c0 10 00 00 00 00 e5 48 10 00 00 00 e3 00 f0 48  .......H.......H
	0x03b0 00 04 a7 0b 00 01 e3 30 f0 a8 00 04 e3 10 30 00  .......0......0.
	0x03c0 00 04 b9 20 00 01 a7 c4 ff 46 e3 e0 f0 00 00 04  ... .....F......
	0x03d0 a7 fb 02 80 07 fe c0 e5 00 00 00 00 e3 00 f0 18  ................
	0x03e0 00 04 e3 00 f0 a0 00 24 e3 10 f0 10 00 04 e3 10  .......$........
	0x03f0 f0 50 00 24 e3 20 f0 08 00 04 e3 20 f0 58 00 24  .P.$. ..... .X.$
	0x0400 c0 30 00 00 00 00 e5 48 30 00 00 00 e3 40 f0 a8  .0.....H0....@..
	0x0410 00 04 e3 50 40 00 00 04 e3 50 f0 08 00 24 c0 e5  ...P@....P...$..
	0x0420 00 00 00 00 e3 10 f0 58 00 04 e3 20 f0 50 00 04  .......X... .P..
	0x0430 e3 30 f0 a0 00 04 eb 13 f0 08 00 24 c0 e5 00 00  .0.........$....
	0x0440 00 00 e3 00 f0 20 00 04 e3 10 f0 a8 00 04 e3 10  ..... ..........
	0x0450 10 00 00 04 e3 10 f0 68 00 24 e3 00 f0 60 00 24  .......h.$...`.$
	0x0460 41 1f 01 c0 d7 5f 10 00 10 00 c0 10 00 00 00 00  A...._..........
	0x0470 c0 20 00 00 00 00 eb 12 f1 c0 00 24 c0 10 00 00  . .........$....
	0x0480 00 00 41 2f 00 68 eb 12 f0 08 00 24 c0 e5 00 00  ..A/.h.....$....
	0x0490 00 00 e3 10 f0 20 00 04 e3 00 f0 18 00 04 e3 00  ..... ..........
	0x04a0 f1 d0 00 24 c0 20 00 00 00 00 c0 30 00 00 00 00  ...$. .....0....
	0x04b0 eb 13 f1 d8 00 24 c0 10 00 00 00 00 c0 20 00 00  .....$....... ..
	0x04c0 00 00 eb 12 f0 08 00 24 c0 e5 00 00 00 00 e3 00  .......$........
	0x04d0 f0 18 00 04 e3 10 f0 20 00 04 e3 00 f1 f0 00 24  ....... .......$
	0x04e0 c0 20 00 00 00 00 c0 30 00 00 00 00 eb 13 f1 f8  . .....0........
	0x04f0 00 24 c0 10 00 00 00 00 41 2f 00 60 eb 12 f0 08  .$......A/.`....
	0x0500 00 24 c0 e5 00 00 00 00 e3 10 f0 18 00 04 e3 20  .$............. 
	0x0510 f0 20 00 04 eb 12 f2 10 00 24 41 0f 01 c0 e3 00  . .......$A.....
	0x0520 f0 08 00 24 e5 48 f0 10 00 06 e5 48 f0 18 00 06  ...$.H.....H....
	0x0530 c0 e5 00 00 00 00 a7 f4 ff 4a e5 48 f0 b0 00 00  .........J.H....
	0x0540 e5 48 f0 b8 00 00 c0 10 00 00 00 00 c0 20 00 00  .H........... ..
	0x0550 00 00 eb 12 f0 b0 00 24 41 0f 00 b0 e3 00 f0 08  .......$A.......
	0x0560 00 24 e5 48 f0 10 00 01 e5 48 f0 18 00 01 c0 e5  .$.H.....H......
	0x0570 00 00 00 00 e3 e0 f0 00 00 04 a7 fb 02 80 07 fe  ................
	0x0580 e5 48 f0 c0 00 00 e5 48 f0 c8 00 00 c0 10 00 00  .H.....H........
	0x0590 00 00 c0 20 00 00 00 00 eb 12 f0 c0 00 24 41 0f  ... .........$A.
	0x05a0 00 c0 e3 00 f0 08 00 24 e5 48 f0 10 00 01 e5 48  .......$.H.....H
	0x05b0 f0 18 00 01 c0 e5 00 00 00 00 e3 e0 f0 00 00 04  ................
	0x05c0 a7 fb 02 80 07 fe e3 00 f0 80 00 24 e5 48 f1 00  ...........$.H..
	0x05d0 00 00 e5 48 f1 08 00 00 c0 10 00 00 00 00 41 2f  ...H..........A/
	0x05e0 00 80 eb 12 f0 08 00 24 c0 e5 00 00 00 00 e3 10  .......$........
	0x05f0 f0 18 00 04 e3 20 f0 20 00 04 eb 12 f1 00 00 24  ..... . .......$
	0x0600 c0 00 00 00 00 00 e3 00 f0 08 00 24 e5 48 f0 10  ...........$.H..
	0x0610 00 08 41 0f 01 00 e3 00 f0 18 00 24 e5 48 f0 20  ..A........$.H. 
	0x0620 00 01 e5 48 f0 28 00 01 c0 e5 00 00 00 00 e3 30  ...H.(.........0
	0x0630 f0 90 00 04 e3 00 30 00 00 04 e3 30 f0 a8 00 04  ......0....0....
	0x0640 e3 00 30 00 00 24 a7 f4 fd ea e5 48 f1 b0 00 00  ..0..$.....H....
	0x0650 e5 48 f1 b8 00 00 c0 10 00 00 00 00 c0 20 00 00  .H........... ..
	0x0660 00 00 eb 12 f1 b0 00 24 41 0f 01 b0 e3 00 f0 08  .......$A.......
	0x0670 00 24 e5 48 f0 10 00 01 e5 48 f0 18 00 01 c0 e5  .$.H.....H......
	0x0680 00 00 00 00 e5 48 f1 a0 00 00 e5 48 f1 a8 00 00  .....H.....H....
	0x0690 c0 10 00 00 00 00 c0 20 00 00 00 00 eb 12 f1 a0  ....... ........
	0x06a0 00 24 41 0f 01 a0 e3 00 f0 08 00 24 e5 48 f0 10  .$A........$.H..
	0x06b0 00 01 e5 48 f0 18 00 01 c0 e5 00 00 00 00 e5 48  ...H...........H
	0x06c0 f1 90 00 00 e5 48 f1 98 00 00 c0 10 00 00 00 00  .....H..........
	0x06d0 c0 20 00 00 00 00 eb 12 f1 90 00 24 41 0f 01 90  . .........$A...
	0x06e0 e3 00 f0 08 00 24 e5 48 f0 10 00 01 e5 48 f0 18  .....$.H.....H..
	0x06f0 00 01 c0 e5 00 00 00 00 e5 48 f1 80 00 00 e5 48  .........H.....H
	0x0700 f1 88 00 00 c0 10 00 00 00 00 c0 20 00 00 00 00  ........... ....
	0x0710 eb 12 f1 80 00 24 41 0f 01 80 e3 00 f0 08 00 24  .....$A........$
	0x0720 e5 48 f0 10 00 01 e5 48 f0 18 00 01 c0 e5 00 00  .H.....H........
	0x0730 00 00 e5 48 f1 70 00 00 e5 48 f1 78 00 00 c0 10  ...H.p...H.x....
	0x0740 00 00 00 00 c0 20 00 00 00 00 eb 12 f1 70 00 24  ..... .......p.$
	0x0750 41 0f 01 70 e3 00 f0 08 00 24 e5 48 f0 10 00 01  A..p.....$.H....
	0x0760 e5 48 f0 18 00 01 c0 e5 00 00 00 00 e5 48 f1 60  .H...........H.`
	0x0770 00 00 e5 48 f1 68 00 00 c0 10 00 00 00 00 c0 20  ...H.h......... 
	0x0780 00 00 00 00 eb 12 f1 60 00 24 41 0f 01 60 e3 00  .......`.$A..`..
	0x0790 f0 08 00 24 e5 48 f0 10 00 01 e5 48 f0 18 00 01  ...$.H.....H....
	0x07a0 c0 e5 00 00 00 00 e5 48 f1 50 00 00 e5 48 f1 58  .......H.P...H.X
	0x07b0 00 00 c0 10 00 00 00 00 c0 20 00 00 00 00 eb 12  ......... ......
	0x07c0 f1 50 00 24 41 0f 01 50 e3 00 f0 08 00 24 e5 48  .P.$A..P.....$.H
	0x07d0 f0 10 00 01 e5 48 f0 18 00 01 c0 e5 00 00 00 00  .....H..........
	0x07e0 e5 48 f1 40 00 00 e5 48 f1 48 00 00 c0 10 00 00  .H.@...H.H......
	0x07f0 00 00 c0 20 00 00 00 00 eb 12 f1 40 00 24 41 0f  ... .......@.$A.
	0x0800 01 40 e3 00 f0 08 00 24 e5 48 f0 10 00 01 e5 48  .@.....$.H.....H
	0x0810 f0 18 00 01 c0 e5 00 00 00 00 e5 48 f1 30 00 00  ...........H.0..
	0x0820 e5 48 f1 38 00 00 c0 10 00 00 00 00 c0 20 00 00  .H.8......... ..
	0x0830 00 00 eb 12 f1 30 00 24 41 0f 01 30 e3 00 f0 08  .....0.$A..0....
	0x0840 00 24 e5 48 f0 10 00 01 e5 48 f0 18 00 01 c0 e5  .$.H.....H......
	0x0850 00 00 00 00 e5 48 f1 20 00 00 e5 48 f1 28 00 00  .....H. ...H.(..
	0x0860 c0 10 00 00 00 00 c0 20 00 00 00 00 eb 12 f1 20  ....... ....... 
	0x0870 00 24 41 0f 01 20 e3 00 f0 08 00 24 e5 48 f0 10  .$A.. .....$.H..
	0x0880 00 01 e5 48 f0 18 00 01 c0 e5 00 00 00 00 e5 48  ...H...........H
	0x0890 f1 10 00 00 e5 48 f1 18 00 00 c0 10 00 00 00 00  .....H..........
	0x08a0 c0 20 00 00 00 00 eb 12 f1 10 00 24 41 0f 01 10  . .........$A...
	0x08b0 e3 00 f0 08 00 24 e5 48 f0 10 00 01 e5 48 f0 18  .....$.H.....H..
	0x08c0 00 01 c0 e5 00 00 00 00 e3 e0 f0 00 00 04 a7 fb  ................
	0x08d0 02 80 07 fe b9 04 00 5e c0 e5 00 00 00 00 a7 f4  .......^........
	0x08e0 fb 91 00 00 00 00 00 00 00 00 00 00 00 00 00 00  ................
	rel 32+4 t=41 type.int64+6
	rel 44+4 t=8 runtime.newobject+6
	rel 72+4 t=41 type."".CustomStruct+6
	rel 84+4 t=8 runtime.newobject+6
	rel 108+4 t=41 go.itab.*"".CustomStruct,flag.Value+6
	rel 120+4 t=41 go.string."n"+6
	rel 138+4 t=41 go.string."chessboard size"+6
	rel 156+4 t=8 flag.Var+6
	rel 162+4 t=41 go.string."s"+6
	rel 184+4 t=41 go.string."single chessboard size"+6
	rel 202+4 t=8 flag.Bool+6
	rel 220+4 t=41 go.string."h"+6
	rel 242+4 t=41 go.string."show help dialogue"+6
	rel 260+4 t=8 flag.Bool+6
	rel 278+4 t=8 flag.Parse+6
	rel 324+4 t=41 go.string."\nn command line argument is not included.\n"+6
	rel 360+4 t=8 fmt.Printf+6
	rel 378+4 t=41 type.string+6
	rel 384+4 t=41 "".statictmp_11+6
	rel 418+4 t=8 fmt.Println+6
	rel 436+4 t=41 type.string+6
	rel 442+4 t=41 "".statictmp_12+6
	rel 476+4 t=8 fmt.Println+6
	rel 494+4 t=41 type.*int64+6
	rel 534+4 t=8 fmt.Scan+6
	rel 602+4 t=8 time.Now+6
	rel 656+4 t=8 "".queen+6
	rel 686+4 t=8 time.Since+6
	rel 726+4 t=41 type.string+6
	rel 732+4 t=41 "".statictmp_15+6
	rel 744+4 t=41 type.int64+6
	rel 760+4 t=8 runtime.convT2E64+6
	rel 784+4 t=41 type.string+6
	rel 790+4 t=41 "".statictmp_16+6
	rel 802+4 t=41 type.int64+6
	rel 808+4 t=41 "".count+6
	rel 820+4 t=8 runtime.convT2E64+6
	rel 844+4 t=41 type.string+6
	rel 850+4 t=41 "".statictmp_17+6
	rel 862+4 t=41 type.time.Duration+6
	rel 878+4 t=8 runtime.convT2E64+6
	rel 924+4 t=8 fmt.Println+6
	rel 930+4 t=41 "".count+6
	rel 984+4 t=8 time.Now+6
	rel 1026+4 t=41 "".count+6
	rel 1056+4 t=8 "".queen+6
	rel 1086+4 t=8 time.Since+6
	rel 1132+4 t=41 type.string+6
	rel 1138+4 t=41 "".statictmp_18+6
	rel 1150+4 t=41 type.int64+6
	rel 1166+4 t=8 runtime.convT2E64+6
	rel 1190+4 t=41 type.string+6
	rel 1196+4 t=41 "".statictmp_19+6
	rel 1208+4 t=41 type.int64+6
	rel 1214+4 t=41 "".count+6
	rel 1226+4 t=8 runtime.convT2E64+6
	rel 1250+4 t=41 type.string+6
	rel 1256+4 t=41 "".statictmp_20+6
	rel 1268+4 t=41 type.time.Duration+6
	rel 1284+4 t=8 runtime.convT2E64+6
	rel 1330+4 t=8 fmt.Println+6
	rel 1352+4 t=41 type.string+6
	rel 1358+4 t=41 "".statictmp_14+6
	rel 1392+4 t=8 fmt.Println+6
	rel 1422+4 t=41 type.string+6
	rel 1428+4 t=41 "".statictmp_13+6
	rel 1462+4 t=8 fmt.Println+6
	rel 1498+4 t=41 type.int+6
	rel 1514+4 t=8 runtime.convT2E64+6
	rel 1538+4 t=41 go.string."\nn= %d\n\n"+6
	rel 1578+4 t=8 fmt.Printf+6
	rel 1624+4 t=41 type.string+6
	rel 1630+4 t=41 "".statictmp_0+6
	rel 1664+4 t=8 fmt.Println+6
	rel 1682+4 t=41 type.string+6
	rel 1688+4 t=41 "".statictmp_1+6
	rel 1722+4 t=8 fmt.Println+6
	rel 1740+4 t=41 type.string+6
	rel 1746+4 t=41 "".statictmp_2+6
	rel 1780+4 t=8 fmt.Println+6
	rel 1798+4 t=41 type.string+6
	rel 1804+4 t=41 "".statictmp_3+6
	rel 1838+4 t=8 fmt.Println+6
	rel 1856+4 t=41 type.string+6
	rel 1862+4 t=41 "".statictmp_4+6
	rel 1896+4 t=8 fmt.Println+6
	rel 1914+4 t=41 type.string+6
	rel 1920+4 t=41 "".statictmp_5+6
	rel 1954+4 t=8 fmt.Println+6
	rel 1972+4 t=41 type.string+6
	rel 1978+4 t=41 "".statictmp_6+6
	rel 2012+4 t=8 fmt.Println+6
	rel 2030+4 t=41 type.string+6
	rel 2036+4 t=41 "".statictmp_7+6
	rel 2070+4 t=8 fmt.Println+6
	rel 2088+4 t=41 type.string+6
	rel 2094+4 t=41 "".statictmp_8+6
	rel 2128+4 t=8 fmt.Println+6
	rel 2146+4 t=41 type.string+6
	rel 2152+4 t=41 "".statictmp_9+6
	rel 2186+4 t=8 fmt.Println+6
	rel 2204+4 t=41 type.string+6
	rel 2210+4 t=41 "".statictmp_10+6
	rel 2244+4 t=8 fmt.Println+6
	rel 2266+4 t=8 runtime.morestack_noctxt+6
"".place STEXT size=224 args=0x10 locals=0x0
	0x0000 00000 (queens.go:117)	TEXT	"".place(SB), $8-16
	0x0000 00000 (queens.go:117)	MOVD	16(g), R3
	0x0006 00006 (queens.go:117)	CMPUBGE	R3, R15, 208
	0x000c 00012 (queens.go:117)	MOVD	R14, -8(R15)
	0x0012 00018 (queens.go:117)	MOVD	$-8(R15), R15
	0x0018 00024 (queens.go:117)	FUNCDATA	$0, gclocals·9b07c699a4764a3a2de9707ad8461d55(SB)
	0x0018 00024 (queens.go:117)	FUNCDATA	$1, gclocals·2002e13acf59079a1a5782c918894579(SB)
	0x0018 00024 (queens.go:117)	MOVD	"".ps(FP), R0
	0x001e 00030 (queens.go:117)	MOVD	$1, R1
	0x0022 00034 (queens.go:124)	JMP	42
	0x0026 00038 (queens.go:124)	ADD	$1, R1, R1
	0x002a 00042 (queens.go:124)	CMP	R1, R0
	0x002e 00046 (queens.go:124)	BGE	180
	0x0032 00050 (queens.go:125)	CMPU	R1, $30
	0x0038 00056 (queens.go:125)	BGE	198
	0x003c 00060 (queens.go:125)	SLD	$3, R1, R2
	0x0042 00066 (queens.go:125)	MOVD	$"".a(SB), R3
	0x0048 00072 (queens.go:125)	MOVD	(R2)(R3*1), R2
	0x004e 00078 (queens.go:125)	CMPU	R0, $30
	0x0054 00084 (queens.go:125)	BGE	198
	0x0058 00088 (queens.go:125)	SLD	$3, R0, R4
	0x005e 00094 (queens.go:125)	MOVD	(R4)(R3*1), R4
	0x0064 00100 (queens.go:125)	CMP	R2, R4
	0x0068 00104 (queens.go:125)	BEQ	162
	0x006c 00108 (queens.go:128)	SUB	R4, R2, R5
	0x0070 00112 (queens.go:129)	CMP	R5, $0
	0x0074 00116 (queens.go:129)	BGE	154
	0x0078 00120 (queens.go:130)	SUB	R2, R4, R2
	0x007c 00124 (queens.go:133)	SUB	R1, R0, R4
	0x0080 00128 (queens.go:133)	CMP	R4, R2
	0x0084 00132 (queens.go:133)	BNE	38
	0x0088 00136 (queens.go:134)	MOVD	$0, "".~r1+8(FP)
	0x008e 00142 (queens.go:134)	MOVD	(R15), R14
	0x0094 00148 (queens.go:134)	ADD	$8, R15
	0x0098 00152 (queens.go:134)	JMP	R14
	0x009a 00154 (queens.go:134)	MOVD	R5, R2
	0x009e 00158 (queens.go:129)	JMP	124
	0x00a2 00162 (queens.go:126)	MOVD	$0, "".~r1+8(FP)
	0x00a8 00168 (queens.go:126)	MOVD	(R15), R14
	0x00ae 00174 (queens.go:126)	ADD	$8, R15
	0x00b2 00178 (queens.go:126)	JMP	R14
	0x00b4 00180 (queens.go:137)	MOVD	$1, "".~r1+8(FP)
	0x00ba 00186 (queens.go:137)	MOVD	(R15), R14
	0x00c0 00192 (queens.go:137)	ADD	$8, R15
	0x00c4 00196 (queens.go:137)	JMP	R14
	0x00c6 00198 (queens.go:125)	PCDATA	$0, $0
	0x00c6 00198 (queens.go:125)	CALL	runtime.panicindex(SB)
	0x00cc 00204 (queens.go:125)	UNDEF
	0x00d0 00208 (queens.go:125)	NOP
	0x00d0 00208 (queens.go:117)	PCDATA	$0, $-1
	0x00d0 00208 (queens.go:117)	MOVD	R14, R5
	0x00d4 00212 (queens.go:117)	CALL	runtime.morestack_noctxt(SB)
	0x00da 00218 (queens.go:117)	JMP	0
	0x0000 e3 30 d0 10 00 04 ec 3f 00 65 a0 65 e3 e0 ff f8  .0.....?.e.e....
	0x0010 ff 24 e3 ff 0f f8 ff 71 e3 00 f0 10 00 04 a7 19  .$.....q........
	0x0020 00 01 a7 f4 00 04 a7 1b 00 01 b9 20 00 10 a7 a4  ........... ....
	0x0030 00 43 c2 1e 00 00 00 1e a7 a4 00 47 eb 21 00 03  .C.........G.!..
	0x0040 00 0d c0 30 00 00 00 00 e3 23 20 00 00 04 c2 0e  ...0.....# .....
	0x0050 00 00 00 1e a7 a4 00 39 eb 40 00 03 00 0d e3 43  .......9.@.....C
	0x0060 40 00 00 04 b9 20 00 24 a7 84 00 1d b9 e9 40 52  @.... .$......@R
	0x0070 a7 5f 00 00 a7 a4 00 13 b9 e9 20 24 b9 e9 10 40  ._........ $...@
	0x0080 b9 20 00 42 a7 74 ff d1 e5 48 f0 18 00 00 e3 e0  . .B.t...H......
	0x0090 f0 00 00 04 a7 fb 00 08 07 fe b9 04 00 25 a7 f4  .............%..
	0x00a0 ff ef e5 48 f0 18 00 00 e3 e0 f0 00 00 04 a7 fb  ...H............
	0x00b0 00 08 07 fe e5 48 f0 18 00 01 e3 e0 f0 00 00 04  .....H..........
	0x00c0 a7 fb 00 08 07 fe c0 e5 00 00 00 00 00 00 00 00  ................
	0x00d0 b9 04 00 5e c0 e5 00 00 00 00 a7 f4 ff 93 00 00  ...^............
	rel 68+4 t=41 "".a+6
	rel 200+4 t=8 runtime.panicindex+6
	rel 214+4 t=8 runtime.morestack_noctxt+6
"".queen STEXT size=352 args=0x8 locals=0x20
	0x0000 00000 (queens.go:140)	TEXT	"".queen(SB), $40-8
	0x0000 00000 (queens.go:140)	MOVD	16(g), R3
	0x0006 00006 (queens.go:140)	CMPUBGE	R3, R15, 330
	0x000c 00012 (queens.go:140)	MOVD	R14, -40(R15)
	0x0012 00018 (queens.go:140)	MOVD	$-40(R15), R15
	0x0018 00024 (queens.go:140)	FUNCDATA	$0, gclocals·4af967f5c52a6bcdb18ad5576e446d49(SB)
	0x0018 00024 (queens.go:140)	FUNCDATA	$1, gclocals·2002e13acf59079a1a5782c918894579(SB)
	0x0018 00024 (queens.go:146)	MOVD	$"".a+8(SB), R1
	0x001e 00030 (queens.go:146)	MOVD	$0, (R1)
	0x0024 00036 (queens.go:140)	MOVD	$1, R0
	0x0028 00040 (queens.go:147)	JMP	186
	0x002c 00044 (queens.go:147)	MOVD	""..autotmp_6-8(SP), R1
	0x0032 00050 (queens.go:150)	MOVD	$"".a(SB), R2
	0x0038 00056 (queens.go:150)	MOVD	(R2)(R1*1), R3
	0x003e 00062 (queens.go:150)	ADD	$1, R3, R3
	0x0042 00066 (queens.go:150)	MOVD	R3, (R2)(R1*1)
	0x0048 00072 (queens.go:150)	MOVD	"".k-16(SP), R0
	0x004e 00078 (queens.go:149)	MOVD	(R2)(R1*1), R3
	0x0054 00084 (queens.go:149)	MOVD	"".n(FP), R4
	0x005a 00090 (queens.go:149)	CMP	R3, R4
	0x005e 00094 (queens.go:149)	BGT	124
	0x0062 00098 (queens.go:149)	MOVD	R0, 8(R15)
	0x0068 00104 (queens.go:149)	PCDATA	$0, $0
	0x0068 00104 (queens.go:149)	CALL	"".place(SB)
	0x006e 00110 (queens.go:149)	MOVD	16(R15), R0
	0x0074 00116 (queens.go:149)	CMP	R0, $0
	0x0078 00120 (queens.go:149)	BEQ	44
	0x007c 00124 (queens.go:149)	MOVD	""..autotmp_6-8(SP), R1
	0x0082 00130 (queens.go:152)	MOVD	$"".a(SB), R2
	0x0088 00136 (queens.go:152)	MOVD	(R2)(R1*1), R0
	0x008e 00142 (queens.go:152)	MOVD	"".n(FP), R1
	0x0094 00148 (queens.go:152)	CMP	R0, R1
	0x0098 00152 (queens.go:152)	BGT	282
	0x009c 00156 (queens.go:152)	MOVD	"".k-16(SP), R0
	0x00a2 00162 (queens.go:153)	CMP	R0, R1
	0x00a6 00166 (queens.go:153)	BNE	248
	0x00aa 00170 (queens.go:154)	MOVD	"".count(SB), R3
	0x00b0 00176 (queens.go:154)	ADD	$1, R3, R3
	0x00b4 00180 (queens.go:154)	MOVD	R3, "".count(SB)
	0x00ba 00186 (queens.go:147)	CMP	R0, $0
	0x00be 00190 (queens.go:147)	BLE	298
	0x00c2 00194 (queens.go:148)	CMPU	R0, $30
	0x00c8 00200 (queens.go:148)	BGE	320
	0x00cc 00204 (queens.go:148)	MOVD	R0, "".k-16(SP)
	0x00d2 00210 (queens.go:148)	SLD	$3, R0, R1
	0x00d8 00216 (queens.go:148)	MOVD	R1, ""..autotmp_6-8(SP)
	0x00de 00222 (queens.go:148)	MOVD	$"".a(SB), R2
	0x00e4 00228 (queens.go:148)	MOVD	(R2)(R1*1), R3
	0x00ea 00234 (queens.go:148)	ADD	$1, R3, R3
	0x00ee 00238 (queens.go:148)	MOVD	R3, (R2)(R1*1)
	0x00f4 00244 (queens.go:149)	JMP	78
	0x00f8 00248 (queens.go:156)	ADD	$1, R0, R0
	0x00fc 00252 (queens.go:157)	CMPU	R0, $30
	0x0102 00258 (queens.go:157)	BGE	310
	0x0106 00262 (queens.go:157)	SLD	$3, R0, R3
	0x010c 00268 (queens.go:157)	ADD	R2, R3
	0x0110 00272 (queens.go:157)	MOVD	$0, (R3)
	0x0116 00278 (queens.go:157)	JMP	186
	0x011a 00282 (queens.go:157)	MOVD	"".k-16(SP), R3
	0x0120 00288 (queens.go:161)	ADD	$-1, R3, R0
	0x0126 00294 (queens.go:161)	JMP	186
	0x012a 00298 (<unknown line number>)	MOVD	(R15), R14
	0x0130 00304 (<unknown line number>)	ADD	$40, R15
	0x0134 00308 (<unknown line number>)	JMP	R14
	0x0136 00310 (queens.go:157)	PCDATA	$0, $0
	0x0136 00310 (queens.go:157)	CALL	runtime.panicindex(SB)
	0x013c 00316 (queens.go:157)	UNDEF
	0x0140 00320 (queens.go:148)	PCDATA	$0, $0
	0x0140 00320 (queens.go:148)	CALL	runtime.panicindex(SB)
	0x0146 00326 (queens.go:148)	UNDEF
	0x014a 00330 (queens.go:148)	NOP
	0x014a 00330 (queens.go:140)	PCDATA	$0, $-1
	0x014a 00330 (queens.go:140)	MOVD	R14, R5
	0x014e 00334 (queens.go:140)	CALL	runtime.morestack_noctxt(SB)
	0x0154 00340 (queens.go:140)	JMP	0
	0x0000 e3 30 d0 10 00 04 ec 3f 00 a2 a0 65 e3 e0 ff d8  .0.....?...e....
	0x0010 ff 24 e3 ff 0f d8 ff 71 c0 10 00 00 00 00 e5 48  .$.....q.......H
	0x0020 10 00 00 00 a7 09 00 01 a7 f4 00 49 e3 10 f0 20  ...........I... 
	0x0030 00 04 c0 20 00 00 00 00 e3 31 20 00 00 04 a7 3b  ... .....1 ....;
	0x0040 00 01 e3 31 20 00 00 24 e3 00 f0 18 00 04 e3 31  ...1 ..$.......1
	0x0050 20 00 00 04 e3 40 f0 30 00 04 b9 20 00 34 a7 24   ....@.0... .4.$
	0x0060 00 0f e3 00 f0 08 00 24 c0 e5 00 00 00 00 e3 00  .......$........
	0x0070 f0 10 00 04 a7 0f 00 00 a7 84 ff da e3 10 f0 20  ............... 
	0x0080 00 04 c0 20 00 00 00 00 e3 01 20 00 00 04 e3 10  ... ...... .....
	0x0090 f0 30 00 04 b9 20 00 01 a7 24 00 41 e3 00 f0 18  .0... ...$.A....
	0x00a0 00 04 b9 20 00 01 a7 74 00 29 c4 38 00 00 00 00  ... ...t.).8....
	0x00b0 a7 3b 00 01 c4 3b 00 00 00 00 a7 0f 00 00 a7 c4  .;...;..........
	0x00c0 00 36 c2 0e 00 00 00 1e a7 a4 00 3c e3 00 f0 18  .6.........<....
	0x00d0 00 24 eb 10 00 03 00 0d e3 10 f0 20 00 24 c0 20  .$......... .$. 
	0x00e0 00 00 00 00 e3 31 20 00 00 04 a7 3b 00 01 e3 31  .....1 ....;...1
	0x00f0 20 00 00 24 a7 f4 ff ad a7 0b 00 01 c2 0e 00 00   ..$............
	0x0100 00 1e a7 a4 00 1a eb 30 00 03 00 0d b9 e8 20 33  .......0...... 3
	0x0110 e5 48 30 00 00 00 a7 f4 ff d2 e3 30 f0 18 00 04  .H0........0....
	0x0120 ec 03 ff ff 00 d9 a7 f4 ff ca e3 e0 f0 00 00 04  ................
	0x0130 a7 fb 00 28 07 fe c0 e5 00 00 00 00 00 00 00 00  ...(............
	0x0140 c0 e5 00 00 00 00 00 00 00 00 b9 04 00 5e c0 e5  .............^..
	0x0150 00 00 00 00 a7 f4 ff 56 00 00 00 00 00 00 00 00  .......V........
	rel 26+4 t=41 "".a+14
	rel 52+4 t=41 "".a+6
	rel 106+4 t=8 "".place+6
	rel 132+4 t=41 "".a+6
	rel 172+4 t=41 "".count+6
	rel 182+4 t=41 "".count+6
	rel 224+4 t=41 "".a+6
	rel 312+4 t=8 runtime.panicindex+6
	rel 322+4 t=8 runtime.panicindex+6
	rel 336+4 t=8 runtime.morestack_noctxt+6
"".init STEXT size=160 args=0x0 locals=0x0
	0x0000 00000 (<autogenerated>:1)	TEXT	"".init(SB), $8-0
	0x0000 00000 (<autogenerated>:1)	MOVD	16(g), R3
	0x0006 00006 (<autogenerated>:1)	CMPUBGE	R3, R15, 140
	0x000c 00012 (<autogenerated>:1)	MOVD	R14, -8(R15)
	0x0012 00018 (<autogenerated>:1)	MOVD	$-8(R15), R15
	0x0018 00024 (<autogenerated>:1)	FUNCDATA	$0, gclocals·2002e13acf59079a1a5782c918894579(SB)
	0x0018 00024 (<autogenerated>:1)	FUNCDATA	$1, gclocals·2002e13acf59079a1a5782c918894579(SB)
	0x0018 00024 (<autogenerated>:1)	MOVBZ	"".initdone·(SB), R0
	0x0024 00036 (<autogenerated>:1)	MOVD	R0, R1
	0x0028 00040 (<autogenerated>:1)	CMPU	R1, $1
	0x002e 00046 (<autogenerated>:1)	BLE	62
	0x0032 00050 (<autogenerated>:1)	MOVD	(R15), R14
	0x0038 00056 (<autogenerated>:1)	ADD	$8, R15
	0x003c 00060 (<autogenerated>:1)	JMP	R14
	0x003e 00062 (<autogenerated>:1)	MOVB	R0, R0
	0x0042 00066 (<autogenerated>:1)	CMP	R0, $1
	0x0046 00070 (<autogenerated>:1)	BNE	84
	0x004a 00074 (<autogenerated>:1)	PCDATA	$0, $0
	0x004a 00074 (<autogenerated>:1)	CALL	runtime.throwinit(SB)
	0x0050 00080 (<autogenerated>:1)	UNDEF
	0x0054 00084 (<autogenerated>:1)	MOVD	$"".initdone·(SB), R1
	0x005a 00090 (<autogenerated>:1)	MOVB	$1, (R1)
	0x005e 00094 (<autogenerated>:1)	PCDATA	$0, $0
	0x005e 00094 (<autogenerated>:1)	CALL	flag.init(SB)
	0x0064 00100 (<autogenerated>:1)	PCDATA	$0, $0
	0x0064 00100 (<autogenerated>:1)	CALL	fmt.init(SB)
	0x006a 00106 (<autogenerated>:1)	PCDATA	$0, $0
	0x006a 00106 (<autogenerated>:1)	CALL	strconv.init(SB)
	0x0070 00112 (<autogenerated>:1)	PCDATA	$0, $0
	0x0070 00112 (<autogenerated>:1)	CALL	time.init(SB)
	0x0076 00118 (<autogenerated>:1)	MOVD	$"".initdone·(SB), R1
	0x007c 00124 (<autogenerated>:1)	MOVB	$2, (R1)
	0x0080 00128 (<autogenerated>:1)	MOVD	(R15), R14
	0x0086 00134 (<autogenerated>:1)	ADD	$8, R15
	0x008a 00138 (<autogenerated>:1)	JMP	R14
	0x008c 00140 (<autogenerated>:1)	NOP
	0x008c 00140 (<autogenerated>:1)	PCDATA	$0, $-1
	0x008c 00140 (<autogenerated>:1)	MOVD	R14, R5
	0x0090 00144 (<autogenerated>:1)	CALL	runtime.morestack_noctxt(SB)
	0x0096 00150 (<autogenerated>:1)	JMP	0
	0x0000 e3 30 d0 10 00 04 ec 3f 00 43 a0 65 e3 e0 ff f8  .0.....?.C.e....
	0x0010 ff 24 e3 ff 0f f8 ff 71 c0 a0 00 00 00 00 e3 00  .$.....q........
	0x0020 a0 00 00 90 b9 04 00 10 c2 1e 00 00 00 01 a7 c4  ................
	0x0030 00 08 e3 e0 f0 00 00 04 a7 fb 00 08 07 fe b9 06  ................
	0x0040 00 00 a7 0f 00 01 a7 74 00 07 c0 e5 00 00 00 00  .......t........
	0x0050 00 00 00 00 c0 10 00 00 00 00 92 01 10 00 c0 e5  ................
	0x0060 00 00 00 00 c0 e5 00 00 00 00 c0 e5 00 00 00 00  ................
	0x0070 c0 e5 00 00 00 00 c0 10 00 00 00 00 92 02 10 00  ................
	0x0080 e3 e0 f0 00 00 04 a7 fb 00 08 07 fe b9 04 00 5e  ...............^
	0x0090 c0 e5 00 00 00 00 a7 f4 ff b5 00 00 00 00 00 00  ................
	rel 26+4 t=41 "".initdone·+6
	rel 76+4 t=8 runtime.throwinit+6
	rel 86+4 t=41 "".initdone·+6
	rel 96+4 t=8 flag.init+6
	rel 102+4 t=8 fmt.init+6
	rel 108+4 t=8 strconv.init+6
	rel 114+4 t=8 time.init+6
	rel 120+4 t=41 "".initdone·+6
	rel 146+4 t=8 runtime.morestack_noctxt+6
type..hash.[6]interface {} STEXT dupok size=144 args=0x18 locals=0x20
	0x0000 00000 (<autogenerated>:1)	TEXT	type..hash.[6]interface {}(SB), DUPOK, $40-24
	0x0000 00000 (<autogenerated>:1)	MOVD	16(g), R3
	0x0006 00006 (<autogenerated>:1)	CMPUBGE	R3, R15, 122
	0x000c 00012 (<autogenerated>:1)	MOVD	R14, -40(R15)
	0x0012 00018 (<autogenerated>:1)	MOVD	$-40(R15), R15
	0x0018 00024 (<autogenerated>:1)	FUNCDATA	$0, gclocals·eb391ca0c27165073f1444a2c269152c(SB)
	0x0018 00024 (<autogenerated>:1)	FUNCDATA	$1, gclocals·2002e13acf59079a1a5782c918894579(SB)
	0x0018 00024 (<autogenerated>:1)	MOVD	$0, R0
	0x001c 00028 (<autogenerated>:1)	MOVD	"".h+8(FP), R1
	0x0022 00034 (<autogenerated>:1)	JMP	96
	0x0026 00038 (<autogenerated>:1)	MOVD	R0, "".i-8(SP)
	0x002c 00044 (<autogenerated>:1)	SLD	$4, R0, R3
	0x0032 00050 (<autogenerated>:1)	MOVD	"".p(FP), R4
	0x0038 00056 (<autogenerated>:1)	ADD	R3, R4, R3
	0x003c 00060 (<autogenerated>:1)	MOVD	R1, R2
	0x0040 00064 (<autogenerated>:1)	MOVD	R3, R1
	0x0044 00068 (<autogenerated>:1)	STMG	R1, R2, 8(R15)
	0x004a 00074 (<autogenerated>:1)	PCDATA	$0, $0
	0x004a 00074 (<autogenerated>:1)	CALL	runtime.nilinterhash(SB)
	0x0050 00080 (<autogenerated>:1)	MOVD	24(R15), R1
	0x0056 00086 (<autogenerated>:1)	MOVD	"".i-8(SP), R0
	0x005c 00092 (<autogenerated>:1)	ADD	$1, R0, R0
	0x0060 00096 (<autogenerated>:1)	CMP	R0, $6
	0x0064 00100 (<autogenerated>:1)	BLT	38
	0x0068 00104 (<autogenerated>:1)	MOVD	R1, "".~r2+16(FP)
	0x006e 00110 (<autogenerated>:1)	MOVD	(R15), R14
	0x0074 00116 (<autogenerated>:1)	ADD	$40, R15
	0x0078 00120 (<autogenerated>:1)	JMP	R14
	0x007a 00122 (<autogenerated>:1)	NOP
	0x007a 00122 (<autogenerated>:1)	PCDATA	$0, $-1
	0x007a 00122 (<autogenerated>:1)	MOVD	R14, R5
	0x007e 00126 (<autogenerated>:1)	CALL	runtime.morestack_noctxt(SB)
	0x0084 00132 (<autogenerated>:1)	JMP	0
	0x0000 e3 30 d0 10 00 04 ec 3f 00 3a a0 65 e3 e0 ff d8  .0.....?.:.e....
	0x0010 ff 24 e3 ff 0f d8 ff 71 a7 09 00 00 e3 10 f0 38  .$.....q.......8
	0x0020 00 04 a7 f4 00 1f e3 00 f0 20 00 24 eb 30 00 04  ......... .$.0..
	0x0030 00 0d e3 40 f0 30 00 04 b9 e8 30 34 b9 04 00 21  ...@.0....04...!
	0x0040 b9 04 00 13 eb 12 f0 08 00 24 c0 e5 00 00 00 00  .........$......
	0x0050 e3 10 f0 18 00 04 e3 00 f0 20 00 04 a7 0b 00 01  ......... ......
	0x0060 a7 0f 00 06 a7 44 ff e1 e3 10 f0 40 00 24 e3 e0  .....D.....@.$..
	0x0070 f0 00 00 04 a7 fb 00 28 07 fe b9 04 00 5e c0 e5  .......(.....^..
	0x0080 00 00 00 00 a7 f4 ff be 00 00 00 00 00 00 00 00  ................
	rel 76+4 t=8 runtime.nilinterhash+6
	rel 128+4 t=8 runtime.morestack_noctxt+6
type..eq.[6]interface {} STEXT dupok size=192 args=0x18 locals=0x28
	0x0000 00000 (<autogenerated>:1)	TEXT	type..eq.[6]interface {}(SB), DUPOK, $48-24
	0x0000 00000 (<autogenerated>:1)	MOVD	16(g), R3
	0x0006 00006 (<autogenerated>:1)	CMPUBGE	R3, R15, 166
	0x000c 00012 (<autogenerated>:1)	MOVD	R14, -48(R15)
	0x0012 00018 (<autogenerated>:1)	MOVD	$-48(R15), R15
	0x0018 00024 (<autogenerated>:1)	FUNCDATA	$0, gclocals·a54b6b029f0102f267f3fba99313dcb8(SB)
	0x0018 00024 (<autogenerated>:1)	FUNCDATA	$1, gclocals·2002e13acf59079a1a5782c918894579(SB)
	0x0018 00024 (<autogenerated>:1)	MOVD	$0, R0
	0x001c 00028 (<autogenerated>:1)	JMP	44
	0x0020 00032 (<autogenerated>:1)	MOVD	"".i-8(SP), R4
	0x0026 00038 (<autogenerated>:1)	ADD	$1, R4, R0
	0x002c 00044 (<autogenerated>:1)	CMP	R0, $6
	0x0030 00048 (<autogenerated>:1)	BGE	150
	0x0034 00052 (<autogenerated>:1)	SLD	$4, R0, R4
	0x003a 00058 (<autogenerated>:1)	MOVD	"".p(FP), R5
	0x0040 00064 (<autogenerated>:1)	MOVD	8(R4)(R5*1), R2
	0x0046 00070 (<autogenerated>:1)	MOVD	(R4)(R5*1), R1
	0x004c 00076 (<autogenerated>:1)	MOVD	"".q+8(FP), R6
	0x0052 00082 (<autogenerated>:1)	MOVD	8(R4)(R6*1), R3
	0x0058 00088 (<autogenerated>:1)	MOVD	(R4)(R6*1), R4
	0x005e 00094 (<autogenerated>:1)	CMP	R1, R4
	0x0062 00098 (<autogenerated>:1)	BNE	134
	0x0066 00102 (<autogenerated>:1)	MOVD	R0, "".i-8(SP)
	0x006c 00108 (<autogenerated>:1)	STMG	R1, R3, 8(R15)
	0x0072 00114 (<autogenerated>:1)	PCDATA	$0, $0
	0x0072 00114 (<autogenerated>:1)	CALL	runtime.efaceeq(SB)
	0x0078 00120 (<autogenerated>:1)	MOVBZ	32(R15), R0
	0x007e 00126 (<autogenerated>:1)	CMPW	R0, $0
	0x0082 00130 (<autogenerated>:1)	BNE	32
	0x0086 00134 (<autogenerated>:1)	MOVB	$0, "".~r2+16(FP)
	0x008a 00138 (<autogenerated>:1)	MOVD	(R15), R14
	0x0090 00144 (<autogenerated>:1)	ADD	$48, R15
	0x0094 00148 (<autogenerated>:1)	JMP	R14
	0x0096 00150 (<autogenerated>:1)	MOVB	$1, "".~r2+16(FP)
	0x009a 00154 (<autogenerated>:1)	MOVD	(R15), R14
	0x00a0 00160 (<autogenerated>:1)	ADD	$48, R15
	0x00a4 00164 (<autogenerated>:1)	JMP	R14
	0x00a6 00166 (<autogenerated>:1)	NOP
	0x00a6 00166 (<autogenerated>:1)	PCDATA	$0, $-1
	0x00a6 00166 (<autogenerated>:1)	MOVD	R14, R5
	0x00aa 00170 (<autogenerated>:1)	CALL	runtime.morestack_noctxt(SB)
	0x00b0 00176 (<autogenerated>:1)	JMP	0
	0x0000 e3 30 d0 10 00 04 ec 3f 00 50 a0 65 e3 e0 ff d0  .0.....?.P.e....
	0x0010 ff 24 e3 ff 0f d0 ff 71 a7 09 00 00 a7 f4 00 08  .$.....q........
	0x0020 e3 40 f0 28 00 04 ec 04 00 01 00 d9 a7 0f 00 06  .@.(............
	0x0030 a7 a4 00 33 eb 40 00 04 00 0d e3 50 f0 38 00 04  ...3.@.....P.8..
	0x0040 e3 25 40 08 00 04 e3 15 40 00 00 04 e3 60 f0 40  .%@.....@....`.@
	0x0050 00 04 e3 36 40 08 00 04 e3 46 40 00 00 04 b9 20  ...6@....F@.... 
	0x0060 00 14 a7 74 00 12 e3 00 f0 28 00 24 eb 13 f0 08  ...t.....(.$....
	0x0070 00 24 c0 e5 00 00 00 00 e3 00 f0 20 00 90 a7 0e  .$......... ....
	0x0080 00 00 a7 74 ff cf 92 00 f0 48 e3 e0 f0 00 00 04  ...t.....H......
	0x0090 a7 fb 00 30 07 fe 92 01 f0 48 e3 e0 f0 00 00 04  ...0.....H......
	0x00a0 a7 fb 00 30 07 fe b9 04 00 5e c0 e5 00 00 00 00  ...0.....^......
	0x00b0 a7 f4 ff a8 00 00 00 00 00 00 00 00 00 00 00 00  ................
	rel 116+4 t=8 runtime.efaceeq+6
	rel 172+4 t=8 runtime.morestack_noctxt+6
go.info."".(*CustomStruct).IsSet$abstract SDWARFINFO dupok size=36
	0x0000 03 2e 28 2a 43 75 73 74 6f 6d 53 74 72 75 63 74  ..(*CustomStruct
	0x0010 29 2e 49 73 53 65 74 00 01 01 10 63 46 00 00 00  ).IsSet....cF...
	0x0020 00 00 00 00                                      ....
	rel 31+4 t=28 go.info.*"".CustomStruct+0
go.info."".(*CustomStruct).Get$abstract SDWARFINFO dupok size=34
	0x0000 03 2e 28 2a 43 75 73 74 6f 6d 53 74 72 75 63 74  ..(*CustomStruct
	0x0010 29 2e 47 65 74 00 01 01 10 63 46 00 00 00 00 00  ).Get....cF.....
	0x0020 00 00                                            ..
	rel 29+4 t=28 go.info.*"".CustomStruct+0
go.info.flag.Value.Set SDWARFINFO dupok size=87
	0x0000 02 66 6c 61 67 2e 56 61 6c 75 65 2e 53 65 74 00  .flag.Value.Set.
	0x0010 00 00 00 00 00 00 00 00 00 00 00 00 00 00 00 00  ................
	0x0020 01 9c 00 00 00 00 01 0e 2e 61 6e 6f 6e 30 00 00  .........anon0..
	0x0030 01 00 00 00 00 02 91 18 0e 2e 74 68 69 73 00 00  ..........this..
	0x0040 01 00 00 00 00 02 91 08 0e 7e 72 32 00 01 01 00  .........~r2....
	0x0050 00 00 00 02 91 28 00                             .....(.
	rel 16+8 t=1 flag.Value.Set+0
	rel 24+8 t=1 flag.Value.Set+176
	rel 34+4 t=29 gofile..<autogenerated>+0
	rel 49+4 t=28 go.info.string+0
	rel 65+4 t=28 go.info.flag.Value+0
	rel 79+4 t=28 go.info.error+0
go.range.flag.Value.Set SDWARFRANGE dupok size=0
go.info.flag.Value.String SDWARFINFO dupok size=73
	0x0000 02 66 6c 61 67 2e 56 61 6c 75 65 2e 53 74 72 69  .flag.Value.Stri
	0x0010 6e 67 00 00 00 00 00 00 00 00 00 00 00 00 00 00  ng..............
	0x0020 00 00 00 01 9c 00 00 00 00 01 0e 2e 74 68 69 73  ............this
	0x0030 00 00 01 00 00 00 00 02 91 08 0e 7e 72 31 00 01  ...........~r1..
	0x0040 01 00 00 00 00 02 91 18 00                       .........
	rel 19+8 t=1 flag.Value.String+0
	rel 27+8 t=1 flag.Value.String+160
	rel 37+4 t=29 gofile..<autogenerated>+0
	rel 51+4 t=28 go.info.flag.Value+0
	rel 65+4 t=28 go.info.string+0
go.range.flag.Value.String SDWARFRANGE dupok size=0
go.info."".(*CustomStruct).String SDWARFINFO size=78
	0x0000 02 22 22 2e 28 2a 43 75 73 74 6f 6d 53 74 72 75  ."".(*CustomStru
	0x0010 63 74 29 2e 53 74 72 69 6e 67 00 00 00 00 00 00  ct).String......
	0x0020 00 00 00 00 00 00 00 00 00 00 00 01 9c 00 00 00  ................
	0x0030 00 01 0e 63 46 00 00 1b 00 00 00 00 02 91 08 0e  ...cF...........
	0x0040 7e 72 30 00 01 1b 00 00 00 00 02 91 10 00        ~r0...........
	rel 27+8 t=1 "".(*CustomStruct).String+0
	rel 35+8 t=1 "".(*CustomStruct).String+96
	rel 45+4 t=29 gofile../root/queens.go+0
	rel 56+4 t=28 go.info.*"".CustomStruct+0
	rel 70+4 t=28 go.info.string+0
go.range."".(*CustomStruct).String SDWARFRANGE size=0
go.info."".(*CustomStruct).Set SDWARFINFO size=87
	0x0000 02 22 22 2e 28 2a 43 75 73 74 6f 6d 53 74 72 75  ."".(*CustomStru
	0x0010 63 74 29 2e 53 65 74 00 00 00 00 00 00 00 00 00  ct).Set.........
	0x0020 00 00 00 00 00 00 00 00 01 9c 00 00 00 00 01 0e  ................
	0x0030 63 46 00 00 1f 00 00 00 00 02 91 08 0e 73 00 00  cF...........s..
	0x0040 1f 00 00 00 00 02 91 10 0e 7e 72 31 00 01 1f 00  .........~r1....
	0x0050 00 00 00 02 91 20 00                             ..... .
	rel 24+8 t=1 "".(*CustomStruct).Set+0
	rel 32+8 t=1 "".(*CustomStruct).Set+112
	rel 42+4 t=29 gofile../root/queens.go+0
	rel 53+4 t=28 go.info.*"".CustomStruct+0
	rel 65+4 t=28 go.info.string+0
	rel 79+4 t=28 go.info.error+0
go.range."".(*CustomStruct).Set SDWARFRANGE size=0
go.info."".(*CustomStruct).Get SDWARFINFO size=46
	0x0000 04 00 00 00 00 00 00 00 00 00 00 00 00 00 00 00  ................
	0x0010 00 00 00 00 00 01 9c 11 00 00 00 00 02 91 08 0e  ................
	0x0020 7e 72 30 00 01 25 00 00 00 00 02 91 10 00        ~r0..%........
	rel 1+4 t=28 go.info."".(*CustomStruct).Get$abstract+0
	rel 5+8 t=1 "".(*CustomStruct).Get+0
	rel 13+8 t=1 "".(*CustomStruct).Get+32
	rel 24+4 t=28 go.info."".(*CustomStruct).Get$abstract+24
	rel 38+4 t=28 go.info.int+0
go.range."".(*CustomStruct).Get SDWARFRANGE size=0
go.info."".(*CustomStruct).IsSet SDWARFINFO size=46
	0x0000 04 00 00 00 00 00 00 00 00 00 00 00 00 00 00 00  ................
	0x0010 00 00 00 00 00 01 9c 11 00 00 00 00 02 91 08 0e  ................
	0x0020 7e 72 30 00 01 29 00 00 00 00 02 91 10 00        ~r0..)........
	rel 1+4 t=28 go.info."".(*CustomStruct).IsSet$abstract+0
	rel 5+8 t=1 "".(*CustomStruct).IsSet+0
	rel 13+8 t=1 "".(*CustomStruct).IsSet+32
	rel 24+4 t=28 go.info."".(*CustomStruct).IsSet$abstract+26
	rel 38+4 t=28 go.info.bool+0
go.range."".(*CustomStruct).IsSet SDWARFRANGE size=0
go.string."Usage example:   " SRODATA dupok size=17
	0x0000 55 73 61 67 65 20 65 78 61 6d 70 6c 65 3a 20 20  Usage example:  
	0x0010 20                                                
go.string."queens -h -s -n=14" SRODATA dupok size=18
	0x0000 71 75 65 65 6e 73 20 2d 68 20 2d 73 20 2d 6e 3d  queens -h -s -n=
	0x0010 31 34                                            14
go.string." " SRODATA dupok size=1
	0x0000 20                                                
go.string."-h         show this help         " SRODATA dupok size=34
	0x0000 2d 68 20 20 20 20 20 20 20 20 20 73 68 6f 77 20  -h         show 
	0x0010 74 68 69 73 20 68 65 6c 70 20 20 20 20 20 20 20  this help       
	0x0020 20 20                                              
go.string."-s         single n value calculation switch" SRODATA dupok size=44
	0x0000 2d 73 20 20 20 20 20 20 20 20 20 73 69 6e 67 6c  -s         singl
	0x0010 65 20 6e 20 76 61 6c 75 65 20 63 61 6c 63 75 6c  e n value calcul
	0x0020 61 74 69 6f 6e 20 73 77 69 74 63 68              ation switch
go.string."-n=14      calculate all values from 4 to 14 in list form" SRODATA dupok size=57
	0x0000 2d 6e 3d 31 34 20 20 20 20 20 20 63 61 6c 63 75  -n=14      calcu
	0x0010 6c 61 74 65 20 61 6c 6c 20 76 61 6c 75 65 73 20  late all values 
	0x0020 66 72 6f 6d 20 34 20 74 6f 20 31 34 20 69 6e 20  from 4 to 14 in 
	0x0030 6c 69 73 74 20 66 6f 72 6d                       list form
go.string."Smallest n value is 4. Highest practical value as of 2016 is 27 for supercomputers" SRODATA dupok size=82
	0x0000 53 6d 61 6c 6c 65 73 74 20 6e 20 76 61 6c 75 65  Smallest n value
	0x0010 20 69 73 20 34 2e 20 48 69 67 68 65 73 74 20 70   is 4. Highest p
	0x0020 72 61 63 74 69 63 61 6c 20 76 61 6c 75 65 20 61  ractical value a
	0x0030 73 20 6f 66 20 32 30 31 36 20 69 73 20 32 37 20  s of 2016 is 27 
	0x0040 66 6f 72 20 73 75 70 65 72 63 6f 6d 70 75 74 65  for supercompute
	0x0050 72 73                                            rs
go.string."World record as of 2016 is n=26. More info http://penguin.ewu.edu/~trolfe/SCCS-95/SCCS-95.html" SRODATA dupok size=94
	0x0000 57 6f 72 6c 64 20 72 65 63 6f 72 64 20 61 73 20  World record as 
	0x0010 6f 66 20 32 30 31 36 20 69 73 20 6e 3d 32 36 2e  of 2016 is n=26.
	0x0020 20 4d 6f 72 65 20 69 6e 66 6f 20 68 74 74 70 3a   More info http:
	0x0030 2f 2f 70 65 6e 67 75 69 6e 2e 65 77 75 2e 65 64  //penguin.ewu.ed
	0x0040 75 2f 7e 74 72 6f 6c 66 65 2f 53 43 43 53 2d 39  u/~trolfe/SCCS-9
	0x0050 35 2f 53 43 43 53 2d 39 35 2e 68 74 6d 6c        5/SCCS-95.html
go.string."queens is written by Moshix in Go, derived from his original 1982 work in MVS PL/I" SRODATA dupok size=82
	0x0000 71 75 65 65 6e 73 20 69 73 20 77 72 69 74 74 65  queens is writte
	0x0010 6e 20 62 79 20 4d 6f 73 68 69 78 20 69 6e 20 47  n by Moshix in G
	0x0020 6f 2c 20 64 65 72 69 76 65 64 20 66 72 6f 6d 20  o, derived from 
	0x0030 68 69 73 20 6f 72 69 67 69 6e 61 6c 20 31 39 38  his original 198
	0x0040 32 20 77 6f 72 6b 20 69 6e 20 4d 56 53 20 50 4c  2 work in MVS PL
	0x0050 2f 49                                            /I
go.string."Switching to interacive session...." SRODATA dupok size=35
	0x0000 53 77 69 74 63 68 69 6e 67 20 74 6f 20 69 6e 74  Switching to int
	0x0010 65 72 61 63 69 76 65 20 73 65 73 73 69 6f 6e 2e  eracive session.
	0x0020 2e 2e 2e                                         ...
go.string."Please enter chessboard size: " SRODATA dupok size=30
	0x0000 50 6c 65 61 73 65 20 65 6e 74 65 72 20 63 68 65  Please enter che
	0x0010 73 73 62 6f 61 72 64 20 73 69 7a 65 3a 20        ssboard size: 
go.string."There are no values for n < 4. Please retry" SRODATA dupok size=43
	0x0000 54 68 65 72 65 20 61 72 65 20 6e 6f 20 76 61 6c  There are no val
	0x0010 75 65 73 20 66 6f 72 20 6e 20 3c 20 34 2e 20 50  ues for n < 4. P
	0x0020 6c 65 61 73 65 20 72 65 74 72 79                 lease retry
go.string."n > 27 requires supercomputers as of 2016. Pls retry" SRODATA dupok size=52
	0x0000 6e 20 3e 20 32 37 20 72 65 71 75 69 72 65 73 20  n > 27 requires 
	0x0010 73 75 70 65 72 63 6f 6d 70 75 74 65 72 73 20 61  supercomputers a
	0x0020 73 20 6f 66 20 32 30 31 36 2e 20 50 6c 73 20 72  s of 2016. Pls r
	0x0030 65 74 72 79                                      etry
go.string." n= " SRODATA dupok size=4
	0x0000 20 6e 3d 20                                       n= 
go.string."solutions:  " SRODATA dupok size=12
	0x0000 73 6f 6c 75 74 69 6f 6e 73 3a 20 20              solutions:  
go.string."-- exec time:" SRODATA dupok size=13
	0x0000 2d 2d 20 65 78 65 63 20 74 69 6d 65 3a           -- exec time:
go.string."n" SRODATA dupok size=1
	0x0000 6e                                               n
go.string."chessboard size" SRODATA dupok size=15
	0x0000 63 68 65 73 73 62 6f 61 72 64 20 73 69 7a 65     chessboard size
go.string."s" SRODATA dupok size=1
	0x0000 73                                               s
go.string."single chessboard size" SRODATA dupok size=22
	0x0000 73 69 6e 67 6c 65 20 63 68 65 73 73 62 6f 61 72  single chessboar
	0x0010 64 20 73 69 7a 65                                d size
go.string."h" SRODATA dupok size=1
	0x0000 68                                               h
go.string."show help dialogue" SRODATA dupok size=18
	0x0000 73 68 6f 77 20 68 65 6c 70 20 64 69 61 6c 6f 67  show help dialog
	0x0010 75 65                                            ue
go.string."\nn= %d\n\n" SRODATA dupok size=8
	0x0000 0a 6e 3d 20 25 64 0a 0a                          .n= %d..
go.string."\nn command line argument is not included.\n" SRODATA dupok size=42
	0x0000 0a 6e 20 63 6f 6d 6d 61 6e 64 20 6c 69 6e 65 20  .n command line 
	0x0010 61 72 67 75 6d 65 6e 74 20 69 73 20 6e 6f 74 20  argument is not 
	0x0020 69 6e 63 6c 75 64 65 64 2e 0a                    included..
go.info."".main SDWARFINFO size=163
	0x0000 02 22 22 2e 6d 61 69 6e 00 00 00 00 00 00 00 00  ."".main........
	0x0010 00 00 00 00 00 00 00 00 00 01 9c 00 00 00 00 01  ................
	0x0020 09 26 6e 00 32 00 00 00 00 03 91 a8 7c 09 62 6f  .&n.2.......|.bo
	0x0030 6f 6c 50 74 72 00 38 00 00 00 00 03 91 98 7c 09  olPtr.8.......|.
	0x0040 68 65 6c 70 50 74 72 00 3a 00 00 00 00 03 91 88  helpPtr.:.......
	0x0050 7c 09 6c 6f 6f 70 76 61 72 00 33 00 00 00 00 03  |.loopvar.3.....
	0x0060 91 c8 7b 05 00 00 00 00 00 00 00 00 00 00 00 00  ..{.............
	0x0070 00 00 00 00 00 00 00 00 00 00 00 00 4a 00 05 00  ............J...
	0x0080 00 00 00 00 00 00 00 00 00 00 00 00 00 00 00 00  ................
	0x0090 00 00 00 00 00 00 00 4c 11 00 00 00 00 03 91 90  .......L........
	0x00a0 7c 00 00                                         |..
	rel 9+8 t=1 "".main+0
	rel 17+8 t=1 "".main+2288
	rel 27+4 t=29 gofile../root/queens.go+0
	rel 37+4 t=28 go.info.*int64+0
	rel 55+4 t=28 go.info.*bool+0
	rel 73+4 t=28 go.info.*bool+0
	rel 91+4 t=28 go.info.int64+0
	rel 100+4 t=28 go.info."".(*CustomStruct).IsSet$abstract+0
	rel 104+8 t=1 "".main+308
	rel 112+8 t=1 "".main+318
	rel 120+4 t=29 gofile../root/queens.go+0
	rel 127+4 t=28 go.info."".(*CustomStruct).Get$abstract+0
	rel 131+8 t=1 "".main+1588
	rel 139+8 t=1 "".main+1594
	rel 147+4 t=29 gofile../root/queens.go+0
	rel 153+4 t=28 go.info."".(*CustomStruct).Get$abstract+24
go.range."".main SDWARFRANGE size=0
go.info."".place SDWARFINFO size=61
	0x0000 02 22 22 2e 70 6c 61 63 65 00 00 00 00 00 00 00  ."".place.......
	0x0010 00 00 00 00 00 00 00 00 00 00 01 9c 00 00 00 00  ................
	0x0020 01 0e 70 73 00 00 75 00 00 00 00 02 91 08 0e 7e  ..ps..u........~
	0x0030 72 31 00 01 75 00 00 00 00 02 91 10 00           r1..u........
	rel 10+8 t=1 "".place+0
	rel 18+8 t=1 "".place+224
	rel 28+4 t=29 gofile../root/queens.go+0
	rel 39+4 t=28 go.info.int64+0
	rel 53+4 t=28 go.info.int64+0
go.range."".place SDWARFRANGE size=0
go.info."".queen SDWARFINFO size=59
	0x0000 02 22 22 2e 71 75 65 65 6e 00 00 00 00 00 00 00  ."".queen.......
	0x0010 00 00 00 00 00 00 00 00 00 00 01 9c 00 00 00 00  ................
	0x0020 01 09 6b 00 91 01 00 00 00 00 02 91 70 0e 6e 00  ..k.........p.n.
	0x0030 00 8c 01 00 00 00 00 02 91 08 00                 ...........
	rel 10+8 t=1 "".queen+0
	rel 18+8 t=1 "".queen+352
	rel 28+4 t=29 gofile../root/queens.go+0
	rel 38+4 t=28 go.info.int64+0
	rel 51+4 t=28 go.info.int64+0
go.range."".queen SDWARFRANGE size=0
go.info."".init SDWARFINFO size=33
	0x0000 02 22 22 2e 69 6e 69 74 00 00 00 00 00 00 00 00  ."".init........
	0x0010 00 00 00 00 00 00 00 00 00 01 9c 00 00 00 00 01  ................
	0x0020 00                                               .
	rel 9+8 t=1 "".init+0
	rel 17+8 t=1 "".init+160
	rel 27+4 t=29 gofile..<autogenerated>+0
go.range."".init SDWARFRANGE size=0
"".a SNOPTRBSS size=240
"".count SNOPTRBSS size=8
"".statictmp_0 SRODATA size=16
	0x0000 00 00 00 00 00 00 00 00 00 00 00 00 00 00 00 11  ................
	rel 0+8 t=1 go.string."Usage example:   "+0
"".statictmp_1 SRODATA size=16
	0x0000 00 00 00 00 00 00 00 00 00 00 00 00 00 00 00 12  ................
	rel 0+8 t=1 go.string."queens -h -s -n=14"+0
"".statictmp_2 SRODATA size=16
	0x0000 00 00 00 00 00 00 00 00 00 00 00 00 00 00 00 01  ................
	rel 0+8 t=1 go.string." "+0
"".statictmp_3 SRODATA size=16
	0x0000 00 00 00 00 00 00 00 00 00 00 00 00 00 00 00 22  ..............."
	rel 0+8 t=1 go.string."-h         show this help         "+0
"".statictmp_4 SRODATA size=16
	0x0000 00 00 00 00 00 00 00 00 00 00 00 00 00 00 00 2c  ...............,
	rel 0+8 t=1 go.string."-s         single n value calculation switch"+0
"".statictmp_5 SRODATA size=16
	0x0000 00 00 00 00 00 00 00 00 00 00 00 00 00 00 00 39  ...............9
	rel 0+8 t=1 go.string."-n=14      calculate all values from 4 to 14 in list form"+0
"".statictmp_6 SRODATA size=16
	0x0000 00 00 00 00 00 00 00 00 00 00 00 00 00 00 00 52  ...............R
	rel 0+8 t=1 go.string."Smallest n value is 4. Highest practical value as of 2016 is 27 for supercomputers"+0
"".statictmp_7 SRODATA size=16
	0x0000 00 00 00 00 00 00 00 00 00 00 00 00 00 00 00 5e  ...............^
	rel 0+8 t=1 go.string."World record as of 2016 is n=26. More info http://penguin.ewu.edu/~trolfe/SCCS-95/SCCS-95.html"+0
"".statictmp_8 SRODATA size=16
	0x0000 00 00 00 00 00 00 00 00 00 00 00 00 00 00 00 01  ................
	rel 0+8 t=1 go.string." "+0
"".statictmp_9 SRODATA size=16
	0x0000 00 00 00 00 00 00 00 00 00 00 00 00 00 00 00 52  ...............R
	rel 0+8 t=1 go.string."queens is written by Moshix in Go, derived from his original 1982 work in MVS PL/I"+0
"".statictmp_10 SRODATA size=16
	0x0000 00 00 00 00 00 00 00 00 00 00 00 00 00 00 00 01  ................
	rel 0+8 t=1 go.string." "+0
"".statictmp_11 SRODATA size=16
	0x0000 00 00 00 00 00 00 00 00 00 00 00 00 00 00 00 23  ...............#
	rel 0+8 t=1 go.string."Switching to interacive session...."+0
"".statictmp_12 SRODATA size=16
	0x0000 00 00 00 00 00 00 00 00 00 00 00 00 00 00 00 1e  ................
	rel 0+8 t=1 go.string."Please enter chessboard size: "+0
"".statictmp_13 SRODATA size=16
	0x0000 00 00 00 00 00 00 00 00 00 00 00 00 00 00 00 2b  ...............+
	rel 0+8 t=1 go.string."There are no values for n < 4. Please retry"+0
"".statictmp_14 SRODATA size=16
	0x0000 00 00 00 00 00 00 00 00 00 00 00 00 00 00 00 34  ...............4
	rel 0+8 t=1 go.string."n > 27 requires supercomputers as of 2016. Pls retry"+0
"".statictmp_15 SRODATA size=16
	0x0000 00 00 00 00 00 00 00 00 00 00 00 00 00 00 00 04  ................
	rel 0+8 t=1 go.string." n= "+0
"".statictmp_16 SRODATA size=16
	0x0000 00 00 00 00 00 00 00 00 00 00 00 00 00 00 00 0c  ................
	rel 0+8 t=1 go.string."solutions:  "+0
"".statictmp_17 SRODATA size=16
	0x0000 00 00 00 00 00 00 00 00 00 00 00 00 00 00 00 0d  ................
	rel 0+8 t=1 go.string."-- exec time:"+0
"".statictmp_18 SRODATA size=16
	0x0000 00 00 00 00 00 00 00 00 00 00 00 00 00 00 00 04  ................
	rel 0+8 t=1 go.string." n= "+0
"".statictmp_19 SRODATA size=16
	0x0000 00 00 00 00 00 00 00 00 00 00 00 00 00 00 00 0c  ................
	rel 0+8 t=1 go.string."solutions:  "+0
"".statictmp_20 SRODATA size=16
	0x0000 00 00 00 00 00 00 00 00 00 00 00 00 00 00 00 0d  ................
	rel 0+8 t=1 go.string."-- exec time:"+0
"".initdone· SNOPTRBSS size=1
runtime.gcbits.01 SRODATA dupok size=1
	0x0000 01                                               .
type..namedata.*main.CustomStruct. SRODATA dupok size=21
	0x0000 01 00 12 2a 6d 61 69 6e 2e 43 75 73 74 6f 6d 53  ...*main.CustomS
	0x0010 74 72 75 63 74                                   truct
type..namedata.*func(*main.CustomStruct) int- SRODATA dupok size=32
	0x0000 00 00 1d 2a 66 75 6e 63 28 2a 6d 61 69 6e 2e 43  ...*func(*main.C
	0x0010 75 73 74 6f 6d 53 74 72 75 63 74 29 20 69 6e 74  ustomStruct) int
type.*func(*"".CustomStruct) int SRODATA dupok size=56
	0x0000 00 00 00 00 00 00 00 08 00 00 00 00 00 00 00 08  ................
	0x0010 7f 79 0f a6 00 08 08 36 00 00 00 00 00 00 00 00  .y.....6........
	0x0020 00 00 00 00 00 00 00 00 00 00 00 00 00 00 00 00  ................
	0x0030 00 00 00 00 00 00 00 00                          ........
	rel 24+8 t=1 runtime.algarray+80
	rel 32+8 t=1 runtime.gcbits.01+0
	rel 40+4 t=5 type..namedata.*func(*main.CustomStruct) int-+0
	rel 48+8 t=1 type.func(*"".CustomStruct) int+0
type.func(*"".CustomStruct) int SRODATA dupok size=72
	0x0000 00 00 00 00 00 00 00 08 00 00 00 00 00 00 00 08  ................
	0x0010 a8 44 2f 8e 02 08 08 33 00 00 00 00 00 00 00 00  .D/....3........
	0x0020 00 00 00 00 00 00 00 00 00 00 00 00 00 00 00 00  ................
	0x0030 00 01 00 01 00 00 00 00 00 00 00 00 00 00 00 00  ................
	0x0040 00 00 00 00 00 00 00 00                          ........
	rel 24+8 t=1 runtime.algarray+0
	rel 32+8 t=1 runtime.gcbits.01+0
	rel 40+4 t=5 type..namedata.*func(*main.CustomStruct) int-+0
	rel 44+4 t=6 type.*func(*"".CustomStruct) int+0
	rel 56+8 t=1 type.*"".CustomStruct+0
	rel 64+8 t=1 type.int+0
type..namedata.*func(*main.CustomStruct) bool- SRODATA dupok size=33
	0x0000 00 00 1e 2a 66 75 6e 63 28 2a 6d 61 69 6e 2e 43  ...*func(*main.C
	0x0010 75 73 74 6f 6d 53 74 72 75 63 74 29 20 62 6f 6f  ustomStruct) boo
	0x0020 6c                                               l
type.*func(*"".CustomStruct) bool SRODATA dupok size=56
	0x0000 00 00 00 00 00 00 00 08 00 00 00 00 00 00 00 08  ................
	0x0010 19 f7 d1 3c 00 08 08 36 00 00 00 00 00 00 00 00  ...<...6........
	0x0020 00 00 00 00 00 00 00 00 00 00 00 00 00 00 00 00  ................
	0x0030 00 00 00 00 00 00 00 00                          ........
	rel 24+8 t=1 runtime.algarray+80
	rel 32+8 t=1 runtime.gcbits.01+0
	rel 40+4 t=5 type..namedata.*func(*main.CustomStruct) bool-+0
	rel 48+8 t=1 type.func(*"".CustomStruct) bool+0
type.func(*"".CustomStruct) bool SRODATA dupok size=72
	0x0000 00 00 00 00 00 00 00 08 00 00 00 00 00 00 00 08  ................
	0x0010 66 9e 7d 6e 02 08 08 33 00 00 00 00 00 00 00 00  f.}n...3........
	0x0020 00 00 00 00 00 00 00 00 00 00 00 00 00 00 00 00  ................
	0x0030 00 01 00 01 00 00 00 00 00 00 00 00 00 00 00 00  ................
	0x0040 00 00 00 00 00 00 00 00                          ........
	rel 24+8 t=1 runtime.algarray+0
	rel 32+8 t=1 runtime.gcbits.01+0
	rel 40+4 t=5 type..namedata.*func(*main.CustomStruct) bool-+0
	rel 44+4 t=6 type.*func(*"".CustomStruct) bool+0
	rel 56+8 t=1 type.*"".CustomStruct+0
	rel 64+8 t=1 type.bool+0
type..namedata.*func(*main.CustomStruct, string) error- SRODATA dupok size=42
	0x0000 00 00 27 2a 66 75 6e 63 28 2a 6d 61 69 6e 2e 43  ..'*func(*main.C
	0x0010 75 73 74 6f 6d 53 74 72 75 63 74 2c 20 73 74 72  ustomStruct, str
	0x0020 69 6e 67 29 20 65 72 72 6f 72                    ing) error
type.*func(*"".CustomStruct, string) error SRODATA dupok size=56
	0x0000 00 00 00 00 00 00 00 08 00 00 00 00 00 00 00 08  ................
	0x0010 40 45 bc c0 00 08 08 36 00 00 00 00 00 00 00 00  @E.....6........
	0x0020 00 00 00 00 00 00 00 00 00 00 00 00 00 00 00 00  ................
	0x0030 00 00 00 00 00 00 00 00                          ........
	rel 24+8 t=1 runtime.algarray+80
	rel 32+8 t=1 runtime.gcbits.01+0
	rel 40+4 t=5 type..namedata.*func(*main.CustomStruct, string) error-+0
	rel 48+8 t=1 type.func(*"".CustomStruct, string) error+0
type.func(*"".CustomStruct, string) error SRODATA dupok size=80
	0x0000 00 00 00 00 00 00 00 08 00 00 00 00 00 00 00 08  ................
	0x0010 b1 4b ac a8 02 08 08 33 00 00 00 00 00 00 00 00  .K.....3........
	0x0020 00 00 00 00 00 00 00 00 00 00 00 00 00 00 00 00  ................
	0x0030 00 02 00 01 00 00 00 00 00 00 00 00 00 00 00 00  ................
	0x0040 00 00 00 00 00 00 00 00 00 00 00 00 00 00 00 00  ................
	rel 24+8 t=1 runtime.algarray+0
	rel 32+8 t=1 runtime.gcbits.01+0
	rel 40+4 t=5 type..namedata.*func(*main.CustomStruct, string) error-+0
	rel 44+4 t=6 type.*func(*"".CustomStruct, string) error+0
	rel 56+8 t=1 type.*"".CustomStruct+0
	rel 64+8 t=1 type.string+0
	rel 72+8 t=1 type.error+0
type..namedata.*func(*main.CustomStruct) string- SRODATA dupok size=35
	0x0000 00 00 20 2a 66 75 6e 63 28 2a 6d 61 69 6e 2e 43  .. *func(*main.C
	0x0010 75 73 74 6f 6d 53 74 72 75 63 74 29 20 73 74 72  ustomStruct) str
	0x0020 69 6e 67                                         ing
type.*func(*"".CustomStruct) string SRODATA dupok size=56
	0x0000 00 00 00 00 00 00 00 08 00 00 00 00 00 00 00 08  ................
	0x0010 6d 71 9f ad 00 08 08 36 00 00 00 00 00 00 00 00  mq.....6........
	0x0020 00 00 00 00 00 00 00 00 00 00 00 00 00 00 00 00  ................
	0x0030 00 00 00 00 00 00 00 00                          ........
	rel 24+8 t=1 runtime.algarray+80
	rel 32+8 t=1 runtime.gcbits.01+0
	rel 40+4 t=5 type..namedata.*func(*main.CustomStruct) string-+0
	rel 48+8 t=1 type.func(*"".CustomStruct) string+0
type.func(*"".CustomStruct) string SRODATA dupok size=72
	0x0000 00 00 00 00 00 00 00 08 00 00 00 00 00 00 00 08  ................
	0x0010 5e cd 57 c5 02 08 08 33 00 00 00 00 00 00 00 00  ^.W....3........
	0x0020 00 00 00 00 00 00 00 00 00 00 00 00 00 00 00 00  ................
	0x0030 00 01 00 01 00 00 00 00 00 00 00 00 00 00 00 00  ................
	0x0040 00 00 00 00 00 00 00 00                          ........
	rel 24+8 t=1 runtime.algarray+0
	rel 32+8 t=1 runtime.gcbits.01+0
	rel 40+4 t=5 type..namedata.*func(*main.CustomStruct) string-+0
	rel 44+4 t=6 type.*func(*"".CustomStruct) string+0
	rel 56+8 t=1 type.*"".CustomStruct+0
	rel 64+8 t=1 type.string+0
type..namedata.Get. SRODATA dupok size=6
	0x0000 01 00 03 47 65 74                                ...Get
type..namedata.*func() int- SRODATA dupok size=14
	0x0000 00 00 0b 2a 66 75 6e 63 28 29 20 69 6e 74        ...*func() int
type.*func() int SRODATA dupok size=56
	0x0000 00 00 00 00 00 00 00 08 00 00 00 00 00 00 00 08  ................
	0x0010 c6 ed b2 51 00 08 08 36 00 00 00 00 00 00 00 00  ...Q...6........
	0x0020 00 00 00 00 00 00 00 00 00 00 00 00 00 00 00 00  ................
	0x0030 00 00 00 00 00 00 00 00                          ........
	rel 24+8 t=1 runtime.algarray+80
	rel 32+8 t=1 runtime.gcbits.01+0
	rel 40+4 t=5 type..namedata.*func() int-+0
	rel 48+8 t=1 type.func() int+0
type.func() int SRODATA dupok size=64
	0x0000 00 00 00 00 00 00 00 08 00 00 00 00 00 00 00 08  ................
	0x0010 e0 39 86 e5 02 08 08 33 00 00 00 00 00 00 00 00  .9.....3........
	0x0020 00 00 00 00 00 00 00 00 00 00 00 00 00 00 00 00  ................
	0x0030 00 00 00 01 00 00 00 00 00 00 00 00 00 00 00 00  ................
	rel 24+8 t=1 runtime.algarray+0
	rel 32+8 t=1 runtime.gcbits.01+0
	rel 40+4 t=5 type..namedata.*func() int-+0
	rel 44+4 t=6 type.*func() int+0
	rel 56+8 t=1 type.int+0
type..namedata.IsSet. SRODATA dupok size=8
	0x0000 01 00 05 49 73 53 65 74                          ...IsSet
type..namedata.*func() bool- SRODATA dupok size=15
	0x0000 00 00 0c 2a 66 75 6e 63 28 29 20 62 6f 6f 6c     ...*func() bool
type.*func() bool SRODATA dupok size=56
	0x0000 00 00 00 00 00 00 00 08 00 00 00 00 00 00 00 08  ................
	0x0010 1e 9b 9a a9 00 08 08 36 00 00 00 00 00 00 00 00  .......6........
	0x0020 00 00 00 00 00 00 00 00 00 00 00 00 00 00 00 00  ................
	0x0030 00 00 00 00 00 00 00 00                          ........
	rel 24+8 t=1 runtime.algarray+80
	rel 32+8 t=1 runtime.gcbits.01+0
	rel 40+4 t=5 type..namedata.*func() bool-+0
	rel 48+8 t=1 type.func() bool+0
type.func() bool SRODATA dupok size=64
	0x0000 00 00 00 00 00 00 00 08 00 00 00 00 00 00 00 08  ................
	0x0010 78 cb 54 13 02 08 08 33 00 00 00 00 00 00 00 00  x.T....3........
	0x0020 00 00 00 00 00 00 00 00 00 00 00 00 00 00 00 00  ................
	0x0030 00 00 00 01 00 00 00 00 00 00 00 00 00 00 00 00  ................
	rel 24+8 t=1 runtime.algarray+0
	rel 32+8 t=1 runtime.gcbits.01+0
	rel 40+4 t=5 type..namedata.*func() bool-+0
	rel 44+4 t=6 type.*func() bool+0
	rel 56+8 t=1 type.bool+0
type..namedata.Set. SRODATA dupok size=6
	0x0000 01 00 03 53 65 74                                ...Set
type..namedata.*func(string) error- SRODATA dupok size=22
	0x0000 00 00 13 2a 66 75 6e 63 28 73 74 72 69 6e 67 29  ...*func(string)
	0x0010 20 65 72 72 6f 72                                 error
type.*func(string) error SRODATA dupok size=56
	0x0000 00 00 00 00 00 00 00 08 00 00 00 00 00 00 00 08  ................
	0x0010 a6 82 f0 dc 00 08 08 36 00 00 00 00 00 00 00 00  .......6........
	0x0020 00 00 00 00 00 00 00 00 00 00 00 00 00 00 00 00  ................
	0x0030 00 00 00 00 00 00 00 00                          ........
	rel 24+8 t=1 runtime.algarray+80
	rel 32+8 t=1 runtime.gcbits.01+0
	rel 40+4 t=5 type..namedata.*func(string) error-+0
	rel 48+8 t=1 type.func(string) error+0
type.func(string) error SRODATA dupok size=72
	0x0000 00 00 00 00 00 00 00 08 00 00 00 00 00 00 00 08  ................
	0x0010 68 94 42 8a 02 08 08 33 00 00 00 00 00 00 00 00  h.B....3........
	0x0020 00 00 00 00 00 00 00 00 00 00 00 00 00 00 00 00  ................
	0x0030 00 01 00 01 00 00 00 00 00 00 00 00 00 00 00 00  ................
	0x0040 00 00 00 00 00 00 00 00                          ........
	rel 24+8 t=1 runtime.algarray+0
	rel 32+8 t=1 runtime.gcbits.01+0
	rel 40+4 t=5 type..namedata.*func(string) error-+0
	rel 44+4 t=6 type.*func(string) error+0
	rel 56+8 t=1 type.string+0
	rel 64+8 t=1 type.error+0
type..namedata.String. SRODATA dupok size=9
	0x0000 01 00 06 53 74 72 69 6e 67                       ...String
type..namedata.*func() string- SRODATA dupok size=17
	0x0000 00 00 0e 2a 66 75 6e 63 28 29 20 73 74 72 69 6e  ...*func() strin
	0x0010 67                                               g
type.*func() string SRODATA dupok size=56
	0x0000 00 00 00 00 00 00 00 08 00 00 00 00 00 00 00 08  ................
	0x0010 69 77 f4 bc 00 08 08 36 00 00 00 00 00 00 00 00  iw.....6........
	0x0020 00 00 00 00 00 00 00 00 00 00 00 00 00 00 00 00  ................
	0x0030 00 00 00 00 00 00 00 00                          ........
	rel 24+8 t=1 runtime.algarray+80
	rel 32+8 t=1 runtime.gcbits.01+0
	rel 40+4 t=5 type..namedata.*func() string-+0
	rel 48+8 t=1 type.func() string+0
type.func() string SRODATA dupok size=64
	0x0000 00 00 00 00 00 00 00 08 00 00 00 00 00 00 00 08  ................
	0x0010 1e cb 6d a2 02 08 08 33 00 00 00 00 00 00 00 00  ..m....3........
	0x0020 00 00 00 00 00 00 00 00 00 00 00 00 00 00 00 00  ................
	0x0030 00 00 00 01 00 00 00 00 00 00 00 00 00 00 00 00  ................
	rel 24+8 t=1 runtime.algarray+0
	rel 32+8 t=1 runtime.gcbits.01+0
	rel 40+4 t=5 type..namedata.*func() string-+0
	rel 44+4 t=6 type.*func() string+0
	rel 56+8 t=1 type.string+0
type.*"".CustomStruct SRODATA size=136
	0x0000 00 00 00 00 00 00 00 08 00 00 00 00 00 00 00 08  ................
	0x0010 37 04 04 d8 01 08 08 36 00 00 00 00 00 00 00 00  7......6........
	0x0020 00 00 00 00 00 00 00 00 00 00 00 00 00 00 00 00  ................
	0x0030 00 00 00 00 00 00 00 00 00 00 00 00 00 04 00 00  ................
	0x0040 00 00 00 10 00 00 00 00 00 00 00 00 00 00 00 00  ................
	0x0050 00 00 00 00 00 00 00 00 00 00 00 00 00 00 00 00  ................
	0x0060 00 00 00 00 00 00 00 00 00 00 00 00 00 00 00 00  ................
	0x0070 00 00 00 00 00 00 00 00 00 00 00 00 00 00 00 00  ................
	0x0080 00 00 00 00 00 00 00 00                          ........
	rel 24+8 t=1 runtime.algarray+80
	rel 32+8 t=1 runtime.gcbits.01+0
	rel 40+4 t=5 type..namedata.*main.CustomStruct.+0
	rel 48+8 t=1 type."".CustomStruct+0
	rel 56+4 t=5 type..importpath."".+0
	rel 72+4 t=5 type..namedata.Get.+0
	rel 76+4 t=24 type.func() int+0
	rel 80+4 t=24 "".(*CustomStruct).Get+0
	rel 84+4 t=24 "".(*CustomStruct).Get+0
	rel 88+4 t=5 type..namedata.IsSet.+0
	rel 92+4 t=24 type.func() bool+0
	rel 96+4 t=24 "".(*CustomStruct).IsSet+0
	rel 100+4 t=24 "".(*CustomStruct).IsSet+0
	rel 104+4 t=5 type..namedata.Set.+0
	rel 108+4 t=24 type.func(string) error+0
	rel 112+4 t=24 "".(*CustomStruct).Set+0
	rel 116+4 t=24 "".(*CustomStruct).Set+0
	rel 120+4 t=5 type..namedata.String.+0
	rel 124+4 t=24 type.func() string+0
	rel 128+4 t=24 "".(*CustomStruct).String+0
	rel 132+4 t=24 "".(*CustomStruct).String+0
runtime.gcbits. SRODATA dupok size=0
type..namedata.FlagValue. SRODATA dupok size=12
	0x0000 01 00 09 46 6c 61 67 56 61 6c 75 65              ...FlagValue
type."".CustomStruct SRODATA size=120
	0x0000 00 00 00 00 00 00 00 08 00 00 00 00 00 00 00 00  ................
	0x0010 48 3c c3 a3 07 08 08 99 00 00 00 00 00 00 00 00  H<..............
	0x0020 00 00 00 00 00 00 00 00 00 00 00 00 00 00 00 00  ................
	0x0030 00 00 00 00 00 00 00 00 00 00 00 00 00 00 00 00  ................
	0x0040 00 00 00 00 00 00 00 01 00 00 00 00 00 00 00 01  ................
	0x0050 00 00 00 00 00 00 00 00 00 00 00 28 00 00 00 00  ...........(....
	0x0060 00 00 00 00 00 00 00 00 00 00 00 00 00 00 00 00  ................
	0x0070 00 00 00 00 00 00 00 00                          ........
	rel 24+8 t=1 runtime.algarray+80
	rel 32+8 t=1 runtime.gcbits.+0
	rel 40+4 t=5 type..namedata.*main.CustomStruct.+0
	rel 44+4 t=5 type.*"".CustomStruct+0
	rel 56+8 t=1 type."".CustomStruct+96
	rel 80+4 t=5 type..importpath."".+0
	rel 96+8 t=1 type..namedata.FlagValue.+0
	rel 104+8 t=1 type.int+0
type..namedata.*interface {}- SRODATA dupok size=16
	0x0000 00 00 0d 2a 69 6e 74 65 72 66 61 63 65 20 7b 7d  ...*interface {}
type.*interface {} SRODATA dupok size=56
	0x0000 00 00 00 00 00 00 00 08 00 00 00 00 00 00 00 08  ................
	0x0010 9d 96 0f 4f 00 08 08 36 00 00 00 00 00 00 00 00  ...O...6........
	0x0020 00 00 00 00 00 00 00 00 00 00 00 00 00 00 00 00  ................
	0x0030 00 00 00 00 00 00 00 00                          ........
	rel 24+8 t=1 runtime.algarray+80
	rel 32+8 t=1 runtime.gcbits.01+0
	rel 40+4 t=5 type..namedata.*interface {}-+0
	rel 48+8 t=1 type.interface {}+0
runtime.gcbits.03 SRODATA dupok size=1
	0x0000 03                                               .
type.interface {} SRODATA dupok size=80
	0x0000 00 00 00 00 00 00 00 10 00 00 00 00 00 00 00 10  ................
	0x0010 18 a0 57 e7 02 08 08 14 00 00 00 00 00 00 00 00  ..W.............
	0x0020 00 00 00 00 00 00 00 00 00 00 00 00 00 00 00 00  ................
	0x0030 00 00 00 00 00 00 00 00 00 00 00 00 00 00 00 00  ................
	0x0040 00 00 00 00 00 00 00 00 00 00 00 00 00 00 00 00  ................
	rel 24+8 t=1 runtime.algarray+144
	rel 32+8 t=1 runtime.gcbits.03+0
	rel 40+4 t=5 type..namedata.*interface {}-+0
	rel 44+4 t=6 type.*interface {}+0
	rel 56+8 t=1 type.interface {}+80
type..namedata.*[]interface {}- SRODATA dupok size=18
	0x0000 00 00 0f 2a 5b 5d 69 6e 74 65 72 66 61 63 65 20  ...*[]interface 
	0x0010 7b 7d                                            {}
type.*[]interface {} SRODATA dupok size=56
	0x0000 00 00 00 00 00 00 00 08 00 00 00 00 00 00 00 08  ................
	0x0010 e7 9a 04 f3 00 08 08 36 00 00 00 00 00 00 00 00  .......6........
	0x0020 00 00 00 00 00 00 00 00 00 00 00 00 00 00 00 00  ................
	0x0030 00 00 00 00 00 00 00 00                          ........
	rel 24+8 t=1 runtime.algarray+80
	rel 32+8 t=1 runtime.gcbits.01+0
	rel 40+4 t=5 type..namedata.*[]interface {}-+0
	rel 48+8 t=1 type.[]interface {}+0
type.[]interface {} SRODATA dupok size=56
	0x0000 00 00 00 00 00 00 00 18 00 00 00 00 00 00 00 08  ................
	0x0010 2f ea 93 70 02 08 08 17 00 00 00 00 00 00 00 00  /..p............
	0x0020 00 00 00 00 00 00 00 00 00 00 00 00 00 00 00 00  ................
	0x0030 00 00 00 00 00 00 00 00                          ........
	rel 24+8 t=1 runtime.algarray+0
	rel 32+8 t=1 runtime.gcbits.01+0
	rel 40+4 t=5 type..namedata.*[]interface {}-+0
	rel 44+4 t=6 type.*[]interface {}+0
	rel 48+8 t=1 type.interface {}+0
type..namedata.*[1]interface {}- SRODATA dupok size=19
	0x0000 00 00 10 2a 5b 31 5d 69 6e 74 65 72 66 61 63 65  ...*[1]interface
	0x0010 20 7b 7d                                          {}
type.*[1]interface {} SRODATA dupok size=56
	0x0000 00 00 00 00 00 00 00 08 00 00 00 00 00 00 00 08  ................
	0x0010 35 a8 03 bf 00 08 08 36 00 00 00 00 00 00 00 00  5......6........
	0x0020 00 00 00 00 00 00 00 00 00 00 00 00 00 00 00 00  ................
	0x0030 00 00 00 00 00 00 00 00                          ........
	rel 24+8 t=1 runtime.algarray+80
	rel 32+8 t=1 runtime.gcbits.01+0
	rel 40+4 t=5 type..namedata.*[1]interface {}-+0
	rel 48+8 t=1 type.[1]interface {}+0
type.[1]interface {} SRODATA dupok size=72
	0x0000 00 00 00 00 00 00 00 10 00 00 00 00 00 00 00 10  ................
	0x0010 fa 5b 91 50 02 08 08 11 00 00 00 00 00 00 00 00  .[.P............
	0x0020 00 00 00 00 00 00 00 00 00 00 00 00 00 00 00 00  ................
	0x0030 00 00 00 00 00 00 00 00 00 00 00 00 00 00 00 00  ................
	0x0040 00 00 00 00 00 00 00 01                          ........
	rel 24+8 t=1 runtime.algarray+144
	rel 32+8 t=1 runtime.gcbits.03+0
	rel 40+4 t=5 type..namedata.*[1]interface {}-+0
	rel 44+4 t=6 type.*[1]interface {}+0
	rel 48+8 t=1 type.interface {}+0
	rel 56+8 t=1 type.[]interface {}+0
type..namedata.*[]int64- SRODATA dupok size=11
	0x0000 00 00 08 2a 5b 5d 69 6e 74 36 34                 ...*[]int64
type.*[]int64 SRODATA dupok size=56
	0x0000 00 00 00 00 00 00 00 08 00 00 00 00 00 00 00 08  ................
	0x0010 91 ee 4e 2c 00 08 08 36 00 00 00 00 00 00 00 00  ..N,...6........
	0x0020 00 00 00 00 00 00 00 00 00 00 00 00 00 00 00 00  ................
	0x0030 00 00 00 00 00 00 00 00                          ........
	rel 24+8 t=1 runtime.algarray+80
	rel 32+8 t=1 runtime.gcbits.01+0
	rel 40+4 t=5 type..namedata.*[]int64-+0
	rel 48+8 t=1 type.[]int64+0
type.[]int64 SRODATA dupok size=56
	0x0000 00 00 00 00 00 00 00 18 00 00 00 00 00 00 00 08  ................
	0x0010 88 76 8e 96 02 08 08 17 00 00 00 00 00 00 00 00  .v..............
	0x0020 00 00 00 00 00 00 00 00 00 00 00 00 00 00 00 00  ................
	0x0030 00 00 00 00 00 00 00 00                          ........
	rel 24+8 t=1 runtime.algarray+0
	rel 32+8 t=1 runtime.gcbits.01+0
	rel 40+4 t=5 type..namedata.*[]int64-+0
	rel 44+4 t=6 type.*[]int64+0
	rel 48+8 t=1 type.int64+0
type..hashfunc240 SRODATA dupok size=16
	0x0000 00 00 00 00 00 00 00 00 00 00 00 00 00 00 00 f0  ................
	rel 0+8 t=1 runtime.memhash_varlen+0
type..eqfunc240 SRODATA dupok size=16
	0x0000 00 00 00 00 00 00 00 00 00 00 00 00 00 00 00 f0  ................
	rel 0+8 t=1 runtime.memequal_varlen+0
type..alg240 SRODATA dupok size=16
	0x0000 00 00 00 00 00 00 00 00 00 00 00 00 00 00 00 00  ................
	rel 0+8 t=1 type..hashfunc240+0
	rel 8+8 t=1 type..eqfunc240+0
type..namedata.*[30]int64- SRODATA dupok size=13
	0x0000 00 00 0a 2a 5b 33 30 5d 69 6e 74 36 34           ...*[30]int64
type.*[30]int64 SRODATA dupok size=56
	0x0000 00 00 00 00 00 00 00 08 00 00 00 00 00 00 00 08  ................
	0x0010 3b 5f dd ff 00 08 08 36 00 00 00 00 00 00 00 00  ;_.....6........
	0x0020 00 00 00 00 00 00 00 00 00 00 00 00 00 00 00 00  ................
	0x0030 00 00 00 00 00 00 00 00                          ........
	rel 24+8 t=1 runtime.algarray+80
	rel 32+8 t=1 runtime.gcbits.01+0
	rel 40+4 t=5 type..namedata.*[30]int64-+0
	rel 48+8 t=1 type.[30]int64+0
type.[30]int64 SRODATA dupok size=72
	0x0000 00 00 00 00 00 00 00 f0 00 00 00 00 00 00 00 00  ................
	0x0010 6b c8 48 42 02 08 08 91 00 00 00 00 00 00 00 00  k.HB............
	0x0020 00 00 00 00 00 00 00 00 00 00 00 00 00 00 00 00  ................
	0x0030 00 00 00 00 00 00 00 00 00 00 00 00 00 00 00 00  ................
	0x0040 00 00 00 00 00 00 00 1e                          ........
	rel 24+8 t=1 type..alg240+0
	rel 32+8 t=1 runtime.gcbits.+0
	rel 40+4 t=5 type..namedata.*[30]int64-+0
	rel 44+4 t=6 type.*[30]int64+0
	rel 48+8 t=1 type.int64+0
	rel 56+8 t=1 type.[]int64+0
go.info.type..hash.[6]interface {} SDWARFINFO dupok size=101
	0x0000 02 74 79 70 65 2e 2e 68 61 73 68 2e 5b 36 5d 69  .type..hash.[6]i
	0x0010 6e 74 65 72 66 61 63 65 20 7b 7d 00 00 00 00 00  nterface {}.....
	0x0020 00 00 00 00 00 00 00 00 00 00 00 00 01 9c 00 00  ................
	0x0030 00 00 01 09 69 00 01 00 00 00 00 02 91 78 0e 70  ....i........x.p
	0x0040 00 00 01 00 00 00 00 02 91 08 0e 68 00 00 01 00  ...........h....
	0x0050 00 00 00 02 91 10 0e 7e 72 32 00 01 01 00 00 00  .......~r2......
	0x0060 00 02 91 18 00                                   .....
	rel 28+8 t=1 type..hash.[6]interface {}+0
	rel 36+8 t=1 type..hash.[6]interface {}+144
	rel 46+4 t=29 gofile..<autogenerated>+0
	rel 55+4 t=28 go.info.int+0
	rel 67+4 t=28 go.info.*[6]interface {}+0
	rel 79+4 t=28 go.info.uintptr+0
	rel 93+4 t=28 go.info.uintptr+0
go.range.type..hash.[6]interface {} SDWARFRANGE dupok size=0
go.info.type..eq.[6]interface {} SDWARFINFO dupok size=99
	0x0000 02 74 79 70 65 2e 2e 65 71 2e 5b 36 5d 69 6e 74  .type..eq.[6]int
	0x0010 65 72 66 61 63 65 20 7b 7d 00 00 00 00 00 00 00  erface {}.......
	0x0020 00 00 00 00 00 00 00 00 00 00 01 9c 00 00 00 00  ................
	0x0030 01 09 69 00 01 00 00 00 00 02 91 78 0e 70 00 00  ..i........x.p..
	0x0040 01 00 00 00 00 02 91 08 0e 71 00 00 01 00 00 00  .........q......
	0x0050 00 02 91 10 0e 7e 72 32 00 01 01 00 00 00 00 02  .....~r2........
	0x0060 91 18 00                                         ...
	rel 26+8 t=1 type..eq.[6]interface {}+0
	rel 34+8 t=1 type..eq.[6]interface {}+192
	rel 44+4 t=29 gofile..<autogenerated>+0
	rel 53+4 t=28 go.info.int+0
	rel 65+4 t=28 go.info.*[6]interface {}+0
	rel 77+4 t=28 go.info.*[6]interface {}+0
	rel 91+4 t=28 go.info.bool+0
go.range.type..eq.[6]interface {} SDWARFRANGE dupok size=0
type..hashfunc.[6]interface {} SRODATA dupok size=8
	0x0000 00 00 00 00 00 00 00 00                          ........
	rel 0+8 t=1 type..hash.[6]interface {}+0
type..eqfunc.[6]interface {} SRODATA dupok size=8
	0x0000 00 00 00 00 00 00 00 00                          ........
	rel 0+8 t=1 type..eq.[6]interface {}+0
type..alg.[6]interface {} SRODATA dupok size=16
	0x0000 00 00 00 00 00 00 00 00 00 00 00 00 00 00 00 00  ................
	rel 0+8 t=1 type..hashfunc.[6]interface {}+0
	rel 8+8 t=1 type..eqfunc.[6]interface {}+0
type..namedata.*[6]interface {}- SRODATA dupok size=19
	0x0000 00 00 10 2a 5b 36 5d 69 6e 74 65 72 66 61 63 65  ...*[6]interface
	0x0010 20 7b 7d                                          {}
type.*[6]interface {} SRODATA dupok size=56
	0x0000 00 00 00 00 00 00 00 08 00 00 00 00 00 00 00 08  ................
	0x0010 f4 8b 5c ac 00 08 08 36 00 00 00 00 00 00 00 00  ..\....6........
	0x0020 00 00 00 00 00 00 00 00 00 00 00 00 00 00 00 00  ................
	0x0030 00 00 00 00 00 00 00 00                          ........
	rel 24+8 t=1 runtime.algarray+80
	rel 32+8 t=1 runtime.gcbits.01+0
	rel 40+4 t=5 type..namedata.*[6]interface {}-+0
	rel 48+8 t=1 type.[6]interface {}+0
runtime.gcbits.ff0f SRODATA dupok size=2
	0x0000 ff 0f                                            ..
type.[6]interface {} SRODATA dupok size=72
	0x0000 00 00 00 00 00 00 00 60 00 00 00 00 00 00 00 60  .......`.......`
	0x0010 a6 52 e1 de 02 08 08 11 00 00 00 00 00 00 00 00  .R..............
	0x0020 00 00 00 00 00 00 00 00 00 00 00 00 00 00 00 00  ................
	0x0030 00 00 00 00 00 00 00 00 00 00 00 00 00 00 00 00  ................
	0x0040 00 00 00 00 00 00 00 06                          ........
	rel 24+8 t=1 type..alg.[6]interface {}+0
	rel 32+8 t=1 runtime.gcbits.ff0f+0
	rel 40+4 t=5 type..namedata.*[6]interface {}-+0
	rel 44+4 t=6 type.*[6]interface {}+0
	rel 48+8 t=1 type.interface {}+0
	rel 56+8 t=1 type.[]interface {}+0
go.itab.*"".CustomStruct,flag.Value SRODATA dupok size=40
	0x0000 00 00 00 00 00 00 00 00 00 00 00 00 00 00 00 00  ................
	0x0010 37 04 04 d8 00 00 00 00 00 00 00 00 00 00 00 00  7...............
	0x0020 00 00 00 00 00 00 00 00                          ........
	rel 0+8 t=1 type.flag.Value+0
	rel 8+8 t=1 type.*"".CustomStruct+0
	rel 24+8 t=1 "".(*CustomStruct).Set+0
	rel 32+8 t=1 "".(*CustomStruct).String+0
go.itablink.*"".CustomStruct,flag.Value SRODATA dupok size=8
	0x0000 00 00 00 00 00 00 00 00                          ........
	rel 0+8 t=1 go.itab.*"".CustomStruct,flag.Value+0
type..importpath.flag. SRODATA dupok size=7
	0x0000 00 00 04 66 6c 61 67                             ...flag
type..importpath.fmt. SRODATA dupok size=6
	0x0000 00 00 03 66 6d 74                                ...fmt
type..importpath.strconv. SRODATA dupok size=10
	0x0000 00 00 07 73 74 72 63 6f 6e 76                    ...strconv
type..importpath.time. SRODATA dupok size=7
	0x0000 00 00 04 74 69 6d 65                             ...time
gclocals·62cfa391e43648b94180d51e85a185ac SRODATA dupok size=10
	0x0000 00 00 00 02 00 00 00 06 07 00                    ..........
gclocals·7434ac78ed715a61a5258eadde9d1323 SRODATA dupok size=8
	0x0000 00 00 00 02 00 00 00 00                          ........
gclocals·2478275c65d3972855cd422c41fea07e SRODATA dupok size=10
	0x0000 00 00 00 02 00 00 00 04 03 00                    ..........
gclocals·6f550cc558777c5ec4d35b94cd3d5dde SRODATA dupok size=10
	0x0000 00 00 00 02 00 00 00 03 01 00                    ..........
gclocals·a510838810b4c18d099122f75603fe77 SRODATA dupok size=10
	0x0000 00 00 00 02 00 00 00 05 03 01                    ..........
gclocals·6e0648e45736623f8a0df5101c2c91a4 SRODATA dupok size=9
	0x0000 00 00 00 01 00 00 00 02 01                       .........
gclocals·2002e13acf59079a1a5782c918894579 SRODATA dupok size=8
	0x0000 00 00 00 01 00 00 00 00                          ........
gclocals·43dc19645ab9b46d37a3955c9492bc89 SRODATA dupok size=8
	0x0000 00 00 00 1a 00 00 00 00                          ........
gclocals·0adbb1cb7450358c2deca90f82abf6f3 SRODATA dupok size=216
	0x0000 00 00 00 1a 00 00 00 3f 00 00 00 00 00 00 00 00  .......?........
	0x0010 10 00 00 00 00 00 00 00 12 00 00 00 00 00 00 00  ................
	0x0020 16 00 00 00 00 00 00 00 17 00 00 00 00 00 00 00  ................
	0x0030 14 00 00 00 00 00 00 00 14 60 00 00 00 00 00 00  .........`......
	0x0040 14 18 00 00 00 00 00 00 14 06 00 00 00 00 00 00  ................
	0x0050 18 00 00 00 00 00 00 00 10 00 00 00 00 00 f8 7f  ................
	0x0060 00 00 00 00 80 ff 07 00 60 00 00 00 00 00 00 00  ........`.......
	0x0070 80 01 00 00 00 00 00 00 16 80 01 00 00 00 00 00  ................
	0x0080 00 00 00 00 60 00 00 00 00 00 00 00 18 00 00 00  ....`...........
	0x0090 00 00 00 00 06 00 00 00 00 00 00 80 01 00 00 00  ................
	0x00a0 00 00 00 60 00 00 00 00 00 00 00 18 00 00 00 00  ...`............
	0x00b0 00 00 00 06 00 00 00 00 00 00 80 01 00 00 00 00  ................
	0x00c0 00 00 60 00 00 00 00 00 00 00 18 00 00 00 00 00  ..`.............
	0x00d0 00 00 06 00 00 00 00 00                          ........
gclocals·9b07c699a4764a3a2de9707ad8461d55 SRODATA dupok size=9
	0x0000 00 00 00 01 00 00 00 02 00                       .........
gclocals·4af967f5c52a6bcdb18ad5576e446d49 SRODATA dupok size=9
	0x0000 00 00 00 01 00 00 00 01 00                       .........
gclocals·eb391ca0c27165073f1444a2c269152c SRODATA dupok size=9
	0x0000 00 00 00 01 00 00 00 03 01                       .........
gclocals·a54b6b029f0102f267f3fba99313dcb8 SRODATA dupok size=9
	0x0000 00 00 00 01 00 00 00 03 03                       .........
